

Microchip Technology PIC18 LITE Macro Assembler V1.35 build -356382666 
                                                                                               Wed Mar 29 14:53:29 2017

Microchip Technology Omniscient Code Generator v1.35 (Free mode) build 201507080246
     1                           	processor	18F4550
     2                           	fnconf	rparam,??,?,0
     3                           	opt	pw 120
     4                           	opt	lm
     5                           	psect	idataCOMRAM,global,class=CODE,delta=1
     6                           	psect	nvCOMRAM,global,class=COMRAM,space=1,delta=1
     7                           	psect	cinit,global,reloc=2,class=CODE,delta=1
     8                           	psect	bitbssCOMRAM,global,bit,class=COMRAM,space=1,delta=1
     9                           	psect	bssCOMRAM,global,class=COMRAM,space=1,delta=1
    10                           	psect	dataCOMRAM,global,class=COMRAM,space=1,delta=1
    11                           	psect	cstackCOMRAM,global,class=COMRAM,space=1,delta=1
    12                           	psect	text0,global,reloc=2,class=CODE,delta=1
    13                           	psect	text1,global,reloc=2,class=CODE,delta=1
    14                           	psect	text2,global,reloc=2,class=CODE,delta=1
    15                           	psect	text3,global,reloc=2,class=CODE,delta=1
    16                           	psect	text4,global,reloc=2,class=CODE,delta=1
    17                           	psect	text5,global,reloc=2,class=CODE,delta=1
    18                           	psect	text6,global,reloc=2,class=CODE,delta=1
    19                           	psect	text7,global,reloc=2,class=CODE,delta=1
    20                           	psect	text8,global,reloc=2,class=CODE,delta=1
    21                           	psect	text9,global,reloc=2,class=CODE,delta=1
    22                           	psect	text10,global,reloc=2,class=CODE,delta=1
    23                           	psect	text11,global,reloc=2,class=CODE,delta=1
    24                           	psect	text12,global,reloc=2,class=CODE,delta=1
    25                           	psect	text13,global,reloc=2,class=CODE,delta=1
    26                           	psect	text14,global,reloc=2,class=CODE,delta=1
    27                           	psect	text15,global,reloc=2,class=CODE,delta=1
    28                           	psect	text16,global,reloc=2,class=CODE,delta=1
    29                           	psect	text17,global,reloc=2,class=CODE,delta=1
    30                           	psect	intcode,global,reloc=2,class=CODE,delta=1
    31                           	psect	intcode_body,global,reloc=2,class=CODE,delta=1
    32                           	psect	intsave_regs,global,class=BIGRAM,space=1,delta=1
    33                           	psect	rparam,global,class=COMRAM,space=1,delta=1
    34                           	psect	temp,global,ovrld,common,class=COMRAM,space=1,delta=1
    35  0000                     
    36                           	psect	idataCOMRAM
    37  0005DE                     __pidataCOMRAM:
    38                           	opt stack 0
    39                           
    40                           ;initializer for _Timer0_SecondsInACycle
    41  0005DE  C9                 	db	201
    42  0005DF  56                 	db	86
    43  0005E0  3F                 	db	63
    44                           
    45                           ;initializer for _receivedData
    46  0005E1  58                 	db	88
    47                           
    48                           	psect	nvCOMRAM
    49  000047                     __pnvCOMRAM:
    50                           	opt stack 0
    51  000047                     _maxContCycle:
    52                           	opt stack 0
    53  000047                     	ds	2
    54  0000                     _ADCON0bits	set	4034
    55  0000                     _ADCON1bits	set	4033
    56  0000                     _ADCON2bits	set	4032
    57  0000                     _INTCONbits	set	4082
    58  0000                     _PIE1bits	set	3997
    59  0000                     _PIR1bits	set	3998
    60  0000                     _PORTBbits	set	3969
    61  0000                     _PORTCbits	set	3970
    62  0000                     _PORTD	set	3971
    63  0000                     _PORTEbits	set	3972
    64  0000                     _RCREG	set	4014
    65  0000                     _SPBRG	set	4015
    66  0000                     _SSPADD	set	4040
    67  0000                     _SSPBUF	set	4041
    68  0000                     _SSPCON1	set	4038
    69  0000                     _SSPCON1bits	set	4038
    70  0000                     _SSPCON2	set	4037
    71  0000                     _SSPCON2bits	set	4037
    72  0000                     _SSPSTAT	set	4039
    73  0000                     _SSPSTATbits	set	4039
    74  0000                     _T0CONbits	set	4053
    75  0000                     _TRISBbits	set	3987
    76  0000                     _TRISCbits	set	3988
    77  0000                     _TRISD	set	3989
    78  0000                     _TRISEbits	set	3990
    79  0000                     _TXREG	set	4013
    80  0000                     _ADFM	set	32263
    81  0000                     _BRG16	set	32195
    82  0000                     _BRGH	set	32098
    83  0000                     _CREN	set	32092
    84  0000                     _FERR	set	32090
    85  0000                     _GIE	set	32663
    86  0000                     _OERR	set	32089
    87  0000                     _PEIE	set	32662
    88  0000                     _RCIE	set	31981
    89  0000                     _RCIF	set	31989
    90  0000                     _RX9	set	32094
    91  0000                     _RXDTP	set	32197
    92  0000                     _SPEN	set	32095
    93  0000                     _SSPIF	set	31987
    94  0000                     _SYNC	set	32100
    95  0000                     _TMR0IP	set	32650
    96  0000                     _TX9	set	32102
    97  0000                     _TXEN	set	32101
    98  0000                     _TXIE	set	31980
    99  0000                     _TXIF	set	31988
   100                           
   101                           ; #config settings
   102  0000                     
   103                           	psect	cinit
   104  0004B6                     __pcinit:
   105                           	opt stack 0
   106  0004B6                     start_initialization:
   107                           	opt stack 0
   108  0004B6                     __initialization:
   109                           	opt stack 0
   110                           
   111                           ; Clear objects allocated to BITCOMRAM (1 bytes)
   112  0004B6  6A42               	clrf	(__pbitbssCOMRAM/(0+8))& (0+255),c
   113                           
   114                           ; Clear objects allocated to COMRAM (6 bytes)
   115  0004B8  6A41               	clrf	(__pbssCOMRAM+5)& (0+255),c
   116  0004BA  6A40               	clrf	(__pbssCOMRAM+4)& (0+255),c
   117  0004BC  6A3F               	clrf	(__pbssCOMRAM+3)& (0+255),c
   118  0004BE  6A3E               	clrf	(__pbssCOMRAM+2)& (0+255),c
   119  0004C0  6A3D               	clrf	(__pbssCOMRAM+1)& (0+255),c
   120  0004C2  6A3C               	clrf	__pbssCOMRAM& (0+255),c
   121                           
   122                           ; Initialize objects allocated to COMRAM (4 bytes)
   123                           ; load TBLPTR registers with __pidataCOMRAM
   124  0004C4  0EDE               	movlw	low __pidataCOMRAM
   125  0004C6  6EF6               	movwf	tblptrl,c
   126  0004C8  0E05               	movlw	high __pidataCOMRAM
   127  0004CA  6EF7               	movwf	tblptrh,c
   128  0004CC  0E00               	movlw	low (__pidataCOMRAM shr (0+16))
   129  0004CE  6EF8               	movwf	tblptru,c
   130  0004D0  EE00  F043         	lfsr	0,__pdataCOMRAM
   131  0004D4  EE10 F004          	lfsr	1,4
   132  0004D8                     copy_data0:
   133  0004D8  0009               	tblrd		*+
   134  0004DA  CFF5 FFEE          	movff	tablat,postinc0
   135  0004DE  50E5               	movf	postdec1,w,c
   136  0004E0  50E1               	movf	fsr1l,w,c
   137  0004E2  E1FA               	bnz	copy_data0
   138  0004E4                     end_of_initialization:
   139                           	opt stack 0
   140  0004E4                     __end_of__initialization:
   141                           	opt stack 0
   142  0004E4  9049               	bcf	int$flags,0,c	;clear compiler interrupt flag (level 1)
   143  0004E6  9249               	bcf	int$flags,1,c	;clear compiler interrupt flag (level 2)
   144  0004E8  0100               	movlb	0
   145  0004EA  EFBB  F001         	goto	_main	;jump to C main() function
   146                           tblptru	equ	0xFF8
   147                           tblptrh	equ	0xFF7
   148                           tblptrl	equ	0xFF6
   149                           tablat	equ	0xFF5
   150                           postinc0	equ	0xFEE
   151                           postdec1	equ	0xFE5
   152                           fsr1l	equ	0xFE1
   153                           
   154                           	psect	bitbssCOMRAM
   155  000210                     __pbitbssCOMRAM:
   156                           	opt stack 0
   157  000210                     _changingLed1:
   158                           	opt stack 0
   159  000210                     	ds	1
   160  000211                     _changingLed_VSYNC:
   161                           	opt stack 0
   162  000211                     	ds	1
   163  000212                     _finish:
   164                           	opt stack 0
   165  000212                     	ds	1
   166  000213                     _hasAnError:
   167                           	opt stack 0
   168  000213                     	ds	1
   169  000214                     _requisitar_foto:
   170                           	opt stack 0
   171  000214                     	ds	1
   172                           tblptru	equ	0xFF8
   173                           tblptrh	equ	0xFF7
   174                           tblptrl	equ	0xFF6
   175                           tablat	equ	0xFF5
   176                           postinc0	equ	0xFEE
   177                           postdec1	equ	0xFE5
   178                           fsr1l	equ	0xFE1
   179                           
   180                           	psect	bssCOMRAM
   181  00003C                     __pbssCOMRAM:
   182                           	opt stack 0
   183  00003C                     _val:
   184                           	opt stack 0
   185  00003C                     	ds	2
   186  00003E                     _comprimento:
   187                           	opt stack 0
   188  00003E                     	ds	1
   189  00003F                     _data:
   190                           	opt stack 0
   191  00003F                     	ds	1
   192  000040                     _largura:
   193                           	opt stack 0
   194  000040                     	ds	1
   195  000041                     _leitura:
   196                           	opt stack 0
   197  000041                     	ds	1
   198                           tblptru	equ	0xFF8
   199                           tblptrh	equ	0xFF7
   200                           tblptrl	equ	0xFF6
   201                           tablat	equ	0xFF5
   202                           postinc0	equ	0xFEE
   203                           postdec1	equ	0xFE5
   204                           fsr1l	equ	0xFE1
   205                           
   206                           	psect	dataCOMRAM
   207  000043                     __pdataCOMRAM:
   208                           	opt stack 0
   209  000043                     _Timer0_SecondsInACycle:
   210                           	opt stack 0
   211  000043                     	ds	3
   212  000046                     _receivedData:
   213                           	opt stack 0
   214  000046                     	ds	1
   215                           tblptru	equ	0xFF8
   216                           tblptrh	equ	0xFF7
   217                           tblptrl	equ	0xFF6
   218                           tablat	equ	0xFF5
   219                           postinc0	equ	0xFEE
   220                           postdec1	equ	0xFE5
   221                           fsr1l	equ	0xFE1
   222                           
   223                           	psect	cstackCOMRAM
   224  000001                     __pcstackCOMRAM:
   225                           	opt stack 0
   226  000001                     ??_interruptions:
   227  000001                     
   228                           ; 0 bytes @ 0x0
   229  000001                     	ds	15
   230  000010                     ??_I2C_Idle:
   231  000010                     ?___ftpack:
   232                           	opt stack 0
   233  000010                     I2C_Write_Byte@Byte:
   234                           	opt stack 0
   235  000010                     putch@byte:
   236                           	opt stack 0
   237  000010                     ___ftpack@arg:
   238                           	opt stack 0
   239                           
   240                           ; 3 bytes @ 0xF
   241  000010                     	ds	1
   242  000011                     
   243                           ; 0 bytes @ 0x10
   244  000011                     	ds	2
   245  000013                     ___ftpack@exp:
   246                           	opt stack 0
   247                           
   248                           ; 1 bytes @ 0x12
   249  000013                     	ds	1
   250  000014                     ___ftpack@sign:
   251                           	opt stack 0
   252                           
   253                           ; 1 bytes @ 0x13
   254  000014                     	ds	1
   255  000015                     ??___ftpack:
   256                           
   257                           ; 0 bytes @ 0x14
   258  000015                     	ds	3
   259  000018                     ?___lwtoft:
   260                           	opt stack 0
   261  000018                     ___lwtoft@c:
   262                           	opt stack 0
   263                           
   264                           ; 2 bytes @ 0x17
   265  000018                     	ds	3
   266  00001B                     ?___ftdiv:
   267                           	opt stack 0
   268  00001B                     ___ftdiv@f1:
   269                           	opt stack 0
   270                           
   271                           ; 3 bytes @ 0x1A
   272  00001B                     	ds	3
   273  00001E                     ___ftdiv@f2:
   274                           	opt stack 0
   275                           
   276                           ; 3 bytes @ 0x1D
   277  00001E                     	ds	3
   278  000021                     ??___ftdiv:
   279                           
   280                           ; 0 bytes @ 0x20
   281  000021                     	ds	3
   282  000024                     ___ftdiv@cntr:
   283                           	opt stack 0
   284                           
   285                           ; 1 bytes @ 0x23
   286  000024                     	ds	1
   287  000025                     ___ftdiv@f3:
   288                           	opt stack 0
   289                           
   290                           ; 3 bytes @ 0x24
   291  000025                     	ds	3
   292  000028                     ___ftdiv@exp:
   293                           	opt stack 0
   294                           
   295                           ; 1 bytes @ 0x27
   296  000028                     	ds	1
   297  000029                     ___ftdiv@sign:
   298                           	opt stack 0
   299                           
   300                           ; 1 bytes @ 0x28
   301  000029                     	ds	1
   302  00002A                     ?___fttol:
   303                           	opt stack 0
   304  00002A                     ___fttol@f1:
   305                           	opt stack 0
   306                           
   307                           ; 3 bytes @ 0x29
   308  00002A                     	ds	4
   309  00002E                     ??___fttol:
   310                           
   311                           ; 0 bytes @ 0x2D
   312  00002E                     	ds	5
   313  000033                     ___fttol@sign1:
   314                           	opt stack 0
   315                           
   316                           ; 1 bytes @ 0x32
   317  000033                     	ds	1
   318  000034                     ___fttol@lval:
   319                           	opt stack 0
   320                           
   321                           ; 4 bytes @ 0x33
   322  000034                     	ds	4
   323  000038                     ___fttol@exp1:
   324                           	opt stack 0
   325                           
   326                           ; 1 bytes @ 0x37
   327  000038                     	ds	1
   328  000039                     setMaxContCycle@secondsInACycle:
   329                           	opt stack 0
   330                           
   331                           ; 2 bytes @ 0x38
   332  000039                     	ds	2
   333  00003B                     ??_main:
   334                           
   335                           ; 0 bytes @ 0x3A
   336  00003B                     	ds	1
   337                           tblptru	equ	0xFF8
   338                           tblptrh	equ	0xFF7
   339                           tblptrl	equ	0xFF6
   340                           tablat	equ	0xFF5
   341                           postinc0	equ	0xFEE
   342                           postdec1	equ	0xFE5
   343                           fsr1l	equ	0xFE1
   344                           
   345 ;;
   346 ;;Main: autosize = 0, tempsize = 1, incstack = 0, save=0
   347 ;;
   348 ;; *************** function _main *****************
   349 ;; Defined at:
   350 ;;		line 137 in file "main.c"
   351 ;; Parameters:    Size  Location     Type
   352 ;;		None
   353 ;; Auto vars:     Size  Location     Type
   354 ;;		None
   355 ;; Return value:  Size  Location     Type
   356 ;;		None               void
   357 ;; Registers used:
   358 ;;		wreg, status,2, status,0, cstack
   359 ;; Tracked objects:
   360 ;;		On entry : 0/0
   361 ;;		On exit  : 0/0
   362 ;;		Unchanged: 0/0
   363 ;; Data sizes:     COMRAM   BANK0   BANK1   BANK2   BANK3   BANK4   BANK5   BANK6   BANK7
   364 ;;      Params:         0       0       0       0       0       0       0       0       0
   365 ;;      Locals:         0       0       0       0       0       0       0       0       0
   366 ;;      Temps:          1       0       0       0       0       0       0       0       0
   367 ;;      Totals:         1       0       0       0       0       0       0       0       0
   368 ;;Total ram usage:        1 bytes
   369 ;; Hardware stack levels required when called:    4
   370 ;; This function calls:
   371 ;;		_InitI2C_Master
   372 ;;		_configPinsOV7670
   373 ;;		_configPortBInterrupt
   374 ;;		_configRS232
   375 ;;		_configTimer
   376 ;;		_configUSARTInterrupts
   377 ;;		_putch
   378 ;;		_setMaxContCycle
   379 ;;		_writeOV7670_I2c
   380 ;; This function is called by:
   381 ;;		Startup code after reset
   382 ;; This function uses a non-reentrant model
   383 ;;
   384                           
   385                           	psect	text0
   386  000376                     __ptext0:
   387                           	opt stack 0
   388  000376                     _main:
   389                           	opt stack 27
   390                           
   391                           ;main.c: 139: TRISBbits.RB7 = 1;
   392                           
   393                           ;incstack = 0
   394  000376  8E93               	bsf	3987,7,c	;volatile
   395                           
   396                           ;main.c: 140: TRISBbits.RB6 = 0;
   397  000378  9C93               	bcf	3987,6,c	;volatile
   398                           
   399                           ;main.c: 141: TRISBbits.RB5 = 1;
   400  00037A  8A93               	bsf	3987,5,c	;volatile
   401                           
   402                           ;main.c: 142: TRISBbits.RB4 = 0;
   403  00037C  9893               	bcf	3987,4,c	;volatile
   404                           
   405                           ;main.c: 144: TRISBbits.RB3 = 1;
   406  00037E  8693               	bsf	3987,3,c	;volatile
   407                           
   408                           ;main.c: 145: TRISBbits.RB2 = 0;
   409  000380  9493               	bcf	3987,2,c	;volatile
   410                           
   411                           ;main.c: 146: TRISCbits.RC2 = 0;
   412  000382  9494               	bcf	3988,2,c	;volatile
   413                           
   414                           ;main.c: 147: TRISCbits.RC1 = 0;
   415  000384  9294               	bcf	3988,1,c	;volatile
   416                           
   417                           ;main.c: 148: TRISCbits.RC0 = 0;
   418  000386  9094               	bcf	3988,0,c	;volatile
   419                           
   420                           ;main.c: 149: TRISEbits.RE0 = 0;
   421  000388  9096               	bcf	3990,0,c	;volatile
   422                           
   423                           ;main.c: 150: TRISEbits.RE1 = 0;
   424  00038A  9296               	bcf	3990,1,c	;volatile
   425                           
   426                           ;main.c: 151: TRISEbits.RE2 = 0;
   427  00038C  9496               	bcf	3990,2,c	;volatile
   428                           
   429                           ;main.c: 153: TRISD = 0xFF;
   430  00038E  6895               	setf	3989,c	;volatile
   431                           
   432                           ;main.c: 156: configTimer();
   433  000390  ECA9  F002         	call	_configTimer	;wreg free
   434                           
   435                           ;main.c: 157: setMaxContCycle(30);
   436  000394  0E00               	movlw	0
   437  000396  6E3A               	movwf	setMaxContCycle@secondsInACycle+1,c
   438  000398  0E1E               	movlw	30
   439  00039A  6E39               	movwf	setMaxContCycle@secondsInACycle,c
   440  00039C  EC3A  F002         	call	_setMaxContCycle	;wreg free
   441                           
   442                           ;main.c: 160: configRS232();
   443  0003A0  ECB6  F002         	call	_configRS232	;wreg free
   444                           
   445                           ;main.c: 161: configUSARTInterrupts();
   446  0003A4  ECD3  F002         	call	_configUSARTInterrupts	;wreg free
   447                           
   448                           ;main.c: 164: InitI2C_Master();
   449  0003A8  EC89  F002         	call	_InitI2C_Master	;wreg free
   450                           
   451                           ;main.c: 167: configPortBInterrupt();
   452  0003AC  ECEA  F002         	call	_configPortBInterrupt	;wreg free
   453                           
   454                           ;main.c: 170: writeOV7670_I2c();
   455  0003B0  EC04  F002         	call	_writeOV7670_I2c	;wreg free
   456                           
   457                           ;main.c: 171: configPinsOV7670();
   458  0003B4  EC9A  F002         	call	_configPinsOV7670	;wreg free
   459  0003B8                     l1439:
   460                           
   461                           ;main.c: 175: if(!PORTBbits.RB3){
   462  0003B8  B681               	btfsc	3969,3,c	;volatile
   463  0003BA  D00D               	goto	l1445
   464                           
   465                           ;main.c: 177: _delay((unsigned long)((1)*(20000000/4000000.0)));
   466  0003BC  F000               	nop	
   467  0003BE  D000               	nop2		;2 cycle nop
   468  0003C0  D000               	nop2		;2 cycle nop
   469                           
   470                           ;main.c: 178: PORTCbits.RC1 = 1;
   471  0003C2  8282               	bsf	3970,1,c	;volatile
   472                           
   473                           ;main.c: 179: _delay((unsigned long)((1)*(20000000/4000000.0)));
   474  0003C4  F000               	nop	
   475  0003C6  D000               	nop2		;2 cycle nop
   476  0003C8  D000               	nop2		;2 cycle nop
   477                           
   478                           ;main.c: 180: PORTCbits.RC1 = 0;
   479  0003CA  9282               	bcf	3970,1,c	;volatile
   480                           
   481                           ;main.c: 182: data = PORTD;
   482  0003CC  CF83 F03F          	movff	3971,_data	;volatile
   483                           
   484                           ;main.c: 183: putch(data);
   485  0003D0  503F               	movf	_data,w,c
   486  0003D2  ECDA  F002         	call	_putch
   487  0003D6                     l1445:
   488                           
   489                           ;main.c: 184: }
   490                           ;main.c: 186: if(PORTBbits.RB3 == 1 && finish == 1){
   491  0003D6  B681               	btfsc	3969,3,c	;volatile
   492  0003D8  A442               	btfss	_finish/(0+8),_finish& (0+7),c
   493  0003DA  D009               	goto	l1453
   494                           
   495                           ;main.c: 187: PORTBbits.RB2 = 1;
   496  0003DC  8481               	bsf	3969,2,c	;volatile
   497                           
   498                           ;main.c: 188: _delay((unsigned long)((10)*(20000000/4000.0)));
   499  0003DE  0E41               	movlw	65
   500  0003E0  6E3B               	movwf	??_main& (0+255),c
   501  0003E2  0EEE               	movlw	238
   502  0003E4                     u867:
   503  0003E4  2EE8               	decfsz	wreg,f,c
   504  0003E6  D7FE               	goto	u867
   505  0003E8  2E3B               	decfsz	??_main& (0+255),f,c
   506  0003EA  D7FC               	goto	u867
   507  0003EC  D000               	nop2	
   508  0003EE                     l1453:
   509                           
   510                           ;main.c: 189: }
   511                           ;main.c: 191: if(val == maxContCycle){
   512  0003EE  5047               	movf	_maxContCycle,w,c
   513  0003F0  183C               	xorwf	_val,w,c
   514  0003F2  E1E2               	bnz	l1439
   515  0003F4  5048               	movf	_maxContCycle+1,w,c
   516  0003F6  183D               	xorwf	_val+1,w,c
   517  0003F8  A4D8               	btfss	status,2,c
   518  0003FA  D7DE               	goto	l1439
   519                           
   520                           ;main.c: 193: requisitar_foto = 1;
   521  0003FC  8842               	bsf	_requisitar_foto/(0+8),_requisitar_foto& (0+7),c
   522                           
   523                           ;main.c: 194: val = 0;
   524  0003FE  0E00               	movlw	0
   525  000400  6E3D               	movwf	_val+1,c
   526  000402  0E00               	movlw	0
   527  000404  6E3C               	movwf	_val,c
   528  000406  D7D8               	goto	l1439
   529  000408                     __end_of_main:
   530                           	opt stack 0
   531                           tblptru	equ	0xFF8
   532                           tblptrh	equ	0xFF7
   533                           tblptrl	equ	0xFF6
   534                           tablat	equ	0xFF5
   535                           postinc0	equ	0xFEE
   536                           wreg	equ	0xFE8
   537                           postdec1	equ	0xFE5
   538                           fsr1l	equ	0xFE1
   539                           status	equ	0xFD8
   540                           
   541 ;; *************** function _writeOV7670_I2c *****************
   542 ;; Defined at:
   543 ;;		line 88 in file "main.c"
   544 ;; Parameters:    Size  Location     Type
   545 ;;		None
   546 ;; Auto vars:     Size  Location     Type
   547 ;;		None
   548 ;; Return value:  Size  Location     Type
   549 ;;		None               void
   550 ;; Registers used:
   551 ;;		wreg, status,2, status,0, cstack
   552 ;; Tracked objects:
   553 ;;		On entry : 0/0
   554 ;;		On exit  : 0/0
   555 ;;		Unchanged: 0/0
   556 ;; Data sizes:     COMRAM   BANK0   BANK1   BANK2   BANK3   BANK4   BANK5   BANK6   BANK7
   557 ;;      Params:         0       0       0       0       0       0       0       0       0
   558 ;;      Locals:         0       0       0       0       0       0       0       0       0
   559 ;;      Temps:          0       0       0       0       0       0       0       0       0
   560 ;;      Totals:         0       0       0       0       0       0       0       0       0
   561 ;;Total ram usage:        0 bytes
   562 ;; Hardware stack levels used:    1
   563 ;; Hardware stack levels required when called:    2
   564 ;; This function calls:
   565 ;;		_I2C_Idle
   566 ;;		_I2C_Start
   567 ;;		_I2C_Stop
   568 ;;		_I2C_Write_Byte
   569 ;; This function is called by:
   570 ;;		_main
   571 ;; This function uses a non-reentrant model
   572 ;;
   573                           
   574                           	psect	text1
   575  000408                     __ptext1:
   576                           	opt stack 0
   577  000408                     _writeOV7670_I2c:
   578                           	opt stack 28
   579                           
   580                           ;main.c: 89: I2C_Idle();
   581                           
   582                           ;incstack = 0
   583  000408  ECC2  F002         	call	_I2C_Idle	;wreg free
   584                           
   585                           ;main.c: 90: I2C_Start();
   586  00040C  ECE5  F002         	call	_I2C_Start	;wreg free
   587                           
   588                           ;main.c: 92: I2C_Idle();
   589  000410  ECC2  F002         	call	_I2C_Idle	;wreg free
   590                           
   591                           ;main.c: 93: I2C_Write_Byte(0xD0);
   592  000414  0ED0               	movlw	208
   593  000416  ECCB  F002         	call	_I2C_Write_Byte
   594                           
   595                           ;main.c: 94: I2C_Idle();
   596  00041A  ECC2  F002         	call	_I2C_Idle	;wreg free
   597                           
   598                           ;main.c: 95: I2C_Write_Byte(0x00);
   599  00041E  0E00               	movlw	0
   600  000420  ECCB  F002         	call	_I2C_Write_Byte
   601                           
   602                           ;main.c: 96: I2C_Idle();
   603  000424  ECC2  F002         	call	_I2C_Idle	;wreg free
   604                           
   605                           ;main.c: 97: I2C_Write_Byte(0x00);
   606  000428  0E00               	movlw	0
   607  00042A  ECCB  F002         	call	_I2C_Write_Byte
   608                           
   609                           ;main.c: 98: I2C_Idle();
   610  00042E  ECC2  F002         	call	_I2C_Idle	;wreg free
   611                           
   612                           ;main.c: 99: I2C_Write_Byte(0x08);
   613  000432  0E08               	movlw	8
   614  000434  ECCB  F002         	call	_I2C_Write_Byte
   615                           
   616                           ;main.c: 100: I2C_Idle();
   617  000438  ECC2  F002         	call	_I2C_Idle	;wreg free
   618                           
   619                           ;main.c: 101: I2C_Write_Byte(0x08);
   620  00043C  0E08               	movlw	8
   621  00043E  ECCB  F002         	call	_I2C_Write_Byte
   622                           
   623                           ;main.c: 102: I2C_Idle();
   624  000442  ECC2  F002         	call	_I2C_Idle	;wreg free
   625                           
   626                           ;main.c: 103: I2C_Write_Byte(0x04);
   627  000446  0E04               	movlw	4
   628  000448  ECCB  F002         	call	_I2C_Write_Byte
   629                           
   630                           ;main.c: 104: I2C_Idle();
   631  00044C  ECC2  F002         	call	_I2C_Idle	;wreg free
   632                           
   633                           ;main.c: 105: I2C_Write_Byte(0x17);
   634  000450  0E17               	movlw	23
   635  000452  ECCB  F002         	call	_I2C_Write_Byte
   636                           
   637                           ;main.c: 106: I2C_Idle();
   638  000456  ECC2  F002         	call	_I2C_Idle	;wreg free
   639                           
   640                           ;main.c: 107: I2C_Write_Byte(0x04);
   641  00045A  0E04               	movlw	4
   642  00045C  ECCB  F002         	call	_I2C_Write_Byte
   643                           
   644                           ;main.c: 108: I2C_Idle();
   645  000460  ECC2  F002         	call	_I2C_Idle	;wreg free
   646                           
   647                           ;main.c: 109: I2C_Write_Byte(0X00);
   648  000464  0E00               	movlw	0
   649  000466  ECCB  F002         	call	_I2C_Write_Byte
   650                           
   651                           ;main.c: 110: I2C_Idle();
   652  00046A  ECC2  F002         	call	_I2C_Idle	;wreg free
   653                           
   654                           ;main.c: 112: I2C_Stop();
   655  00046E  ECE0  F002         	call	_I2C_Stop	;wreg free
   656  000472  0012               	return		;funcret
   657  000474                     __end_of_writeOV7670_I2c:
   658                           	opt stack 0
   659                           tblptru	equ	0xFF8
   660                           tblptrh	equ	0xFF7
   661                           tblptrl	equ	0xFF6
   662                           tablat	equ	0xFF5
   663                           postinc0	equ	0xFEE
   664                           wreg	equ	0xFE8
   665                           postdec1	equ	0xFE5
   666                           fsr1l	equ	0xFE1
   667                           status	equ	0xFD8
   668                           
   669 ;; *************** function _I2C_Write_Byte *****************
   670 ;; Defined at:
   671 ;;		line 82 in file "i2c.c"
   672 ;; Parameters:    Size  Location     Type
   673 ;;  Byte            1    wreg     unsigned char 
   674 ;; Auto vars:     Size  Location     Type
   675 ;;  Byte            1   15[COMRAM] unsigned char 
   676 ;; Return value:  Size  Location     Type
   677 ;;		None               void
   678 ;; Registers used:
   679 ;;		wreg
   680 ;; Tracked objects:
   681 ;;		On entry : 0/0
   682 ;;		On exit  : 0/0
   683 ;;		Unchanged: 0/0
   684 ;; Data sizes:     COMRAM   BANK0   BANK1   BANK2   BANK3   BANK4   BANK5   BANK6   BANK7
   685 ;;      Params:         0       0       0       0       0       0       0       0       0
   686 ;;      Locals:         1       0       0       0       0       0       0       0       0
   687 ;;      Temps:          0       0       0       0       0       0       0       0       0
   688 ;;      Totals:         1       0       0       0       0       0       0       0       0
   689 ;;Total ram usage:        1 bytes
   690 ;; Hardware stack levels used:    1
   691 ;; Hardware stack levels required when called:    1
   692 ;; This function calls:
   693 ;;		Nothing
   694 ;; This function is called by:
   695 ;;		_writeOV7670_I2c
   696 ;; This function uses a non-reentrant model
   697 ;;
   698                           
   699                           	psect	text2
   700  000596                     __ptext2:
   701                           	opt stack 0
   702  000596                     _I2C_Write_Byte:
   703                           	opt stack 28
   704                           
   705                           ;incstack = 0
   706                           ;I2C_Write_Byte@Byte stored from wreg
   707  000596  6E10               	movwf	I2C_Write_Byte@Byte,c
   708                           
   709                           ;i2c.c: 84: SSPBUF = Byte;
   710  000598  C010  FFC9         	movff	I2C_Write_Byte@Byte,4041	;volatile
   711  00059C                     l107:
   712  00059C  A69E               	btfss	3998,3,c	;volatile
   713  00059E  D7FE               	goto	l107
   714                           
   715                           ;i2c.c: 86: SSPIF = 0;
   716  0005A0  969E               	bcf	3998,3,c	;volatile
   717                           
   718                           ;i2c.c: 87: return SSPCON2bits.ACKSTAT;
   719                           ;	Return value of _I2C_Write_Byte is never used
   720  0005A2  50C5               	movf	4037,w,c	;volatile
   721  0005A4  0012               	return		;funcret
   722  0005A6                     __end_of_I2C_Write_Byte:
   723                           	opt stack 0
   724                           tblptru	equ	0xFF8
   725                           tblptrh	equ	0xFF7
   726                           tblptrl	equ	0xFF6
   727                           tablat	equ	0xFF5
   728                           postinc0	equ	0xFEE
   729                           wreg	equ	0xFE8
   730                           postdec1	equ	0xFE5
   731                           fsr1l	equ	0xFE1
   732                           status	equ	0xFD8
   733                           
   734 ;; *************** function _I2C_Stop *****************
   735 ;; Defined at:
   736 ;;		line 62 in file "i2c.c"
   737 ;; Parameters:    Size  Location     Type
   738 ;;		None
   739 ;; Auto vars:     Size  Location     Type
   740 ;;		None
   741 ;; Return value:  Size  Location     Type
   742 ;;		None               void
   743 ;; Registers used:
   744 ;;		None
   745 ;; Tracked objects:
   746 ;;		On entry : 0/0
   747 ;;		On exit  : 0/0
   748 ;;		Unchanged: 0/0
   749 ;; Data sizes:     COMRAM   BANK0   BANK1   BANK2   BANK3   BANK4   BANK5   BANK6   BANK7
   750 ;;      Params:         0       0       0       0       0       0       0       0       0
   751 ;;      Locals:         0       0       0       0       0       0       0       0       0
   752 ;;      Temps:          0       0       0       0       0       0       0       0       0
   753 ;;      Totals:         0       0       0       0       0       0       0       0       0
   754 ;;Total ram usage:        0 bytes
   755 ;; Hardware stack levels used:    1
   756 ;; Hardware stack levels required when called:    1
   757 ;; This function calls:
   758 ;;		Nothing
   759 ;; This function is called by:
   760 ;;		_writeOV7670_I2c
   761 ;; This function uses a non-reentrant model
   762 ;;
   763                           
   764                           	psect	text3
   765  0005C0                     __ptext3:
   766                           	opt stack 0
   767  0005C0                     _I2C_Stop:
   768                           	opt stack 28
   769                           
   770                           ;i2c.c: 63: SSPCON2bits.PEN = 1;
   771                           
   772                           ;incstack = 0
   773  0005C0  84C5               	bsf	4037,2,c	;volatile
   774  0005C2                     l89:
   775  0005C2  A69E               	btfss	3998,3,c	;volatile
   776  0005C4  D7FE               	goto	l89
   777                           
   778                           ;i2c.c: 65: SSPIF = 0;
   779  0005C6  969E               	bcf	3998,3,c	;volatile
   780  0005C8  0012               	return		;funcret
   781  0005CA                     __end_of_I2C_Stop:
   782                           	opt stack 0
   783                           tblptru	equ	0xFF8
   784                           tblptrh	equ	0xFF7
   785                           tblptrl	equ	0xFF6
   786                           tablat	equ	0xFF5
   787                           postinc0	equ	0xFEE
   788                           wreg	equ	0xFE8
   789                           postdec1	equ	0xFE5
   790                           fsr1l	equ	0xFE1
   791                           status	equ	0xFD8
   792                           
   793 ;; *************** function _I2C_Start *****************
   794 ;; Defined at:
   795 ;;		line 48 in file "i2c.c"
   796 ;; Parameters:    Size  Location     Type
   797 ;;		None
   798 ;; Auto vars:     Size  Location     Type
   799 ;;		None
   800 ;; Return value:  Size  Location     Type
   801 ;;		None               void
   802 ;; Registers used:
   803 ;;		None
   804 ;; Tracked objects:
   805 ;;		On entry : 0/0
   806 ;;		On exit  : 0/0
   807 ;;		Unchanged: 0/0
   808 ;; Data sizes:     COMRAM   BANK0   BANK1   BANK2   BANK3   BANK4   BANK5   BANK6   BANK7
   809 ;;      Params:         0       0       0       0       0       0       0       0       0
   810 ;;      Locals:         0       0       0       0       0       0       0       0       0
   811 ;;      Temps:          0       0       0       0       0       0       0       0       0
   812 ;;      Totals:         0       0       0       0       0       0       0       0       0
   813 ;;Total ram usage:        0 bytes
   814 ;; Hardware stack levels used:    1
   815 ;; Hardware stack levels required when called:    1
   816 ;; This function calls:
   817 ;;		Nothing
   818 ;; This function is called by:
   819 ;;		_writeOV7670_I2c
   820 ;; This function uses a non-reentrant model
   821 ;;
   822                           
   823                           	psect	text4
   824  0005CA                     __ptext4:
   825                           	opt stack 0
   826  0005CA                     _I2C_Start:
   827                           	opt stack 28
   828                           
   829                           ;i2c.c: 50: SSPCON2bits.SEN = 1;
   830                           
   831                           ;incstack = 0
   832  0005CA  80C5               	bsf	4037,0,c	;volatile
   833  0005CC                     l77:
   834  0005CC  A69E               	btfss	3998,3,c	;volatile
   835  0005CE  D7FE               	goto	l77
   836                           
   837                           ;i2c.c: 52: SSPIF = 0;
   838  0005D0  969E               	bcf	3998,3,c	;volatile
   839  0005D2  0012               	return		;funcret
   840  0005D4                     __end_of_I2C_Start:
   841                           	opt stack 0
   842                           tblptru	equ	0xFF8
   843                           tblptrh	equ	0xFF7
   844                           tblptrl	equ	0xFF6
   845                           tablat	equ	0xFF5
   846                           postinc0	equ	0xFEE
   847                           wreg	equ	0xFE8
   848                           postdec1	equ	0xFE5
   849                           fsr1l	equ	0xFE1
   850                           status	equ	0xFD8
   851                           
   852 ;; *************** function _I2C_Idle *****************
   853 ;; Defined at:
   854 ;;		line 99 in file "i2c.c"
   855 ;; Parameters:    Size  Location     Type
   856 ;;		None
   857 ;; Auto vars:     Size  Location     Type
   858 ;;		None
   859 ;; Return value:  Size  Location     Type
   860 ;;		None               void
   861 ;; Registers used:
   862 ;;		wreg, status,2, status,0
   863 ;; Tracked objects:
   864 ;;		On entry : 0/0
   865 ;;		On exit  : 0/0
   866 ;;		Unchanged: 0/0
   867 ;; Data sizes:     COMRAM   BANK0   BANK1   BANK2   BANK3   BANK4   BANK5   BANK6   BANK7
   868 ;;      Params:         0       0       0       0       0       0       0       0       0
   869 ;;      Locals:         0       0       0       0       0       0       0       0       0
   870 ;;      Temps:          1       0       0       0       0       0       0       0       0
   871 ;;      Totals:         1       0       0       0       0       0       0       0       0
   872 ;;Total ram usage:        1 bytes
   873 ;; Hardware stack levels used:    1
   874 ;; Hardware stack levels required when called:    1
   875 ;; This function calls:
   876 ;;		Nothing
   877 ;; This function is called by:
   878 ;;		_writeOV7670_I2c
   879 ;; This function uses a non-reentrant model
   880 ;;
   881                           
   882                           	psect	text5
   883  000584                     __ptext5:
   884                           	opt stack 0
   885  000584                     _I2C_Idle:
   886                           	opt stack 28
   887  000584                     l939:
   888  000584  CFC5 F010          	movff	4037,??_I2C_Idle	;volatile
   889  000588  0E1F               	movlw	31
   890  00058A  1610               	andwf	??_I2C_Idle,f,c
   891  00058C  A4D8               	btfss	status,2,c
   892  00058E  D7FA               	goto	l939
   893  000590  A4C7               	btfss	4039,2,c	;volatile
   894  000592  0012               	return	
   895  000594  D7F7               	goto	l939
   896  000596                     __end_of_I2C_Idle:
   897                           	opt stack 0
   898                           tblptru	equ	0xFF8
   899                           tblptrh	equ	0xFF7
   900                           tblptrl	equ	0xFF6
   901                           tablat	equ	0xFF5
   902                           postinc0	equ	0xFEE
   903                           wreg	equ	0xFE8
   904                           postdec1	equ	0xFE5
   905                           fsr1l	equ	0xFE1
   906                           status	equ	0xFD8
   907                           
   908 ;; *************** function _setMaxContCycle *****************
   909 ;; Defined at:
   910 ;;		line 84 in file "main.c"
   911 ;; Parameters:    Size  Location     Type
   912 ;;  secondsInACy    2   56[COMRAM] unsigned short 
   913 ;; Auto vars:     Size  Location     Type
   914 ;;		None
   915 ;; Return value:  Size  Location     Type
   916 ;;		None               void
   917 ;; Registers used:
   918 ;;		wreg, status,2, status,0, cstack
   919 ;; Tracked objects:
   920 ;;		On entry : 0/0
   921 ;;		On exit  : 0/0
   922 ;;		Unchanged: 0/0
   923 ;; Data sizes:     COMRAM   BANK0   BANK1   BANK2   BANK3   BANK4   BANK5   BANK6   BANK7
   924 ;;      Params:         2       0       0       0       0       0       0       0       0
   925 ;;      Locals:         0       0       0       0       0       0       0       0       0
   926 ;;      Temps:          0       0       0       0       0       0       0       0       0
   927 ;;      Totals:         2       0       0       0       0       0       0       0       0
   928 ;;Total ram usage:        2 bytes
   929 ;; Hardware stack levels used:    1
   930 ;; Hardware stack levels required when called:    3
   931 ;; This function calls:
   932 ;;		___ftdiv
   933 ;;		___fttol
   934 ;;		___lwtoft
   935 ;; This function is called by:
   936 ;;		_main
   937 ;; This function uses a non-reentrant model
   938 ;;
   939                           
   940                           	psect	text6
   941  000474                     __ptext6:
   942                           	opt stack 0
   943  000474                     _setMaxContCycle:
   944                           	opt stack 27
   945                           
   946                           ;main.c: 85: maxContCycle = (int)(secondsInACycle/Timer0_SecondsInACycle);
   947                           
   948                           ;incstack = 0
   949  000474  C043  F01E         	movff	_Timer0_SecondsInACycle,___ftdiv@f2
   950  000478  C044  F01F         	movff	_Timer0_SecondsInACycle+1,___ftdiv@f2+1
   951  00047C  C045  F020         	movff	_Timer0_SecondsInACycle+2,___ftdiv@f2+2
   952  000480  C039  F018         	movff	setMaxContCycle@secondsInACycle,___lwtoft@c
   953  000484  C03A  F019         	movff	setMaxContCycle@secondsInACycle+1,___lwtoft@c+1
   954  000488  EC77  F002         	call	___lwtoft	;wreg free
   955  00048C  C018  F01B         	movff	?___lwtoft,___ftdiv@f1
   956  000490  C019  F01C         	movff	?___lwtoft+1,___ftdiv@f1+1
   957  000494  C01A  F01D         	movff	?___lwtoft+2,___ftdiv@f1+2
   958  000498  EC87  F000         	call	___ftdiv	;wreg free
   959  00049C  C01B  F02A         	movff	?___ftdiv,___fttol@f1
   960  0004A0  C01C  F02B         	movff	?___ftdiv+1,___fttol@f1+1
   961  0004A4  C01D  F02C         	movff	?___ftdiv+2,___fttol@f1+2
   962  0004A8  EC0D  F000         	call	___fttol	;wreg free
   963  0004AC  C02A  F047         	movff	?___fttol,_maxContCycle
   964  0004B0  C02B  F048         	movff	?___fttol+1,_maxContCycle+1
   965  0004B4  0012               	return		;funcret
   966  0004B6                     __end_of_setMaxContCycle:
   967                           	opt stack 0
   968                           tblptru	equ	0xFF8
   969                           tblptrh	equ	0xFF7
   970                           tblptrl	equ	0xFF6
   971                           tablat	equ	0xFF5
   972                           postinc0	equ	0xFEE
   973                           wreg	equ	0xFE8
   974                           postdec1	equ	0xFE5
   975                           fsr1l	equ	0xFE1
   976                           status	equ	0xFD8
   977                           
   978 ;; *************** function ___lwtoft *****************
   979 ;; Defined at:
   980 ;;		line 28 in file "C:\Program Files (x86)\Microchip\xc8\v1.35\sources\common\lwtoft.c"
   981 ;; Parameters:    Size  Location     Type
   982 ;;  c               2   23[COMRAM] unsigned int 
   983 ;; Auto vars:     Size  Location     Type
   984 ;;		None
   985 ;; Return value:  Size  Location     Type
   986 ;;                  3   23[COMRAM] float 
   987 ;; Registers used:
   988 ;;		wreg, status,2, status,0, cstack
   989 ;; Tracked objects:
   990 ;;		On entry : 0/0
   991 ;;		On exit  : 0/0
   992 ;;		Unchanged: 0/0
   993 ;; Data sizes:     COMRAM   BANK0   BANK1   BANK2   BANK3   BANK4   BANK5   BANK6   BANK7
   994 ;;      Params:         3       0       0       0       0       0       0       0       0
   995 ;;      Locals:         0       0       0       0       0       0       0       0       0
   996 ;;      Temps:          0       0       0       0       0       0       0       0       0
   997 ;;      Totals:         3       0       0       0       0       0       0       0       0
   998 ;;Total ram usage:        3 bytes
   999 ;; Hardware stack levels used:    1
  1000 ;; Hardware stack levels required when called:    2
  1001 ;; This function calls:
  1002 ;;		___ftpack
  1003 ;; This function is called by:
  1004 ;;		_setMaxContCycle
  1005 ;; This function uses a non-reentrant model
  1006 ;;
  1007                           
  1008                           	psect	text7
  1009  0004EE                     __ptext7:
  1010                           	opt stack 0
  1011  0004EE                     ___lwtoft:
  1012                           	opt stack 27
  1013                           
  1014                           ;incstack = 0
  1015  0004EE  C018  F010         	movff	___lwtoft@c,___ftpack@arg
  1016  0004F2  C019  F011         	movff	___lwtoft@c+1,___ftpack@arg+1
  1017  0004F6  6A12               	clrf	___ftpack@arg+2,c
  1018  0004F8  0E8E               	movlw	142
  1019  0004FA  6E13               	movwf	___ftpack@exp,c
  1020  0004FC  0E00               	movlw	0
  1021  0004FE  6E14               	movwf	___ftpack@sign,c
  1022  000500  EC64  F001         	call	___ftpack	;wreg free
  1023  000504  C010  F018         	movff	?___ftpack,?___lwtoft
  1024  000508  C011  F019         	movff	?___ftpack+1,?___lwtoft+1
  1025  00050C  C012  F01A         	movff	?___ftpack+2,?___lwtoft+2
  1026  000510  0012               	return	
  1027  000512                     __end_of___lwtoft:
  1028                           	opt stack 0
  1029                           tblptru	equ	0xFF8
  1030                           tblptrh	equ	0xFF7
  1031                           tblptrl	equ	0xFF6
  1032                           tablat	equ	0xFF5
  1033                           postinc0	equ	0xFEE
  1034                           wreg	equ	0xFE8
  1035                           postdec1	equ	0xFE5
  1036                           fsr1l	equ	0xFE1
  1037                           status	equ	0xFD8
  1038                           
  1039 ;; *************** function ___fttol *****************
  1040 ;; Defined at:
  1041 ;;		line 44 in file "C:\Program Files (x86)\Microchip\xc8\v1.35\sources\common\fttol.c"
  1042 ;; Parameters:    Size  Location     Type
  1043 ;;  f1              3   41[COMRAM] float 
  1044 ;; Auto vars:     Size  Location     Type
  1045 ;;  lval            4   51[COMRAM] unsigned long 
  1046 ;;  exp1            1   55[COMRAM] unsigned char 
  1047 ;;  sign1           1   50[COMRAM] unsigned char 
  1048 ;; Return value:  Size  Location     Type
  1049 ;;                  4   41[COMRAM] long 
  1050 ;; Registers used:
  1051 ;;		wreg, status,2, status,0
  1052 ;; Tracked objects:
  1053 ;;		On entry : 0/0
  1054 ;;		On exit  : 0/0
  1055 ;;		Unchanged: 0/0
  1056 ;; Data sizes:     COMRAM   BANK0   BANK1   BANK2   BANK3   BANK4   BANK5   BANK6   BANK7
  1057 ;;      Params:         4       0       0       0       0       0       0       0       0
  1058 ;;      Locals:         6       0       0       0       0       0       0       0       0
  1059 ;;      Temps:          5       0       0       0       0       0       0       0       0
  1060 ;;      Totals:        15       0       0       0       0       0       0       0       0
  1061 ;;Total ram usage:       15 bytes
  1062 ;; Hardware stack levels used:    1
  1063 ;; Hardware stack levels required when called:    1
  1064 ;; This function calls:
  1065 ;;		Nothing
  1066 ;; This function is called by:
  1067 ;;		_setMaxContCycle
  1068 ;; This function uses a non-reentrant model
  1069 ;;
  1070                           
  1071                           	psect	text8
  1072  00001A                     __ptext8:
  1073                           	opt stack 0
  1074  00001A                     ___fttol:
  1075                           	opt stack 28
  1076                           
  1077                           ;incstack = 0
  1078  00001A  C02C  F02E         	movff	___fttol@f1+2,??___fttol
  1079  00001E  6A2F               	clrf	(??___fttol+1)& (0+255),c
  1080  000020  6A30               	clrf	(??___fttol+2)& (0+255),c
  1081  000022  342B               	rlcf	___fttol@f1+1,w,c
  1082  000024  362E               	rlcf	??___fttol& (0+255),f,c
  1083  000026  E301               	bnc	u741
  1084  000028  802F               	bsf	(??___fttol+1)& (0+255),0,c
  1085  00002A                     u741:
  1086  00002A  502E               	movf	??___fttol,w,c
  1087  00002C  6E38               	movwf	___fttol@exp1,c
  1088  00002E  5038               	movf	___fttol@exp1,w,c
  1089  000030  A4D8               	btfss	status,2,c
  1090  000032  D009               	goto	l1375
  1091  000034  0E00               	movlw	0
  1092  000036  6E2A               	movwf	?___fttol,c
  1093  000038  0E00               	movlw	0
  1094  00003A  6E2B               	movwf	?___fttol+1,c
  1095  00003C  0E00               	movlw	0
  1096  00003E  6E2C               	movwf	?___fttol+2,c
  1097  000040  0E00               	movlw	0
  1098  000042  6E2D               	movwf	?___fttol+3,c
  1099  000044  0012               	return	
  1100  000046                     l1375:
  1101  000046  0E17               	movlw	23
  1102  000048  6E2E               	movwf	??___fttol& (0+255),c
  1103  00004A  C02A  F02F         	movff	___fttol@f1,??___fttol+1
  1104  00004E  C02B  F030         	movff	___fttol@f1+1,??___fttol+2
  1105  000052  C02C  F031         	movff	___fttol@f1+2,??___fttol+3
  1106  000056  282E               	incf	??___fttol,w,c
  1107  000058  6E32               	movwf	(??___fttol+4)& (0+255),c
  1108  00005A  D004               	goto	u760
  1109  00005C                     u765:
  1110  00005C  90D8               	bcf	status,0,c
  1111  00005E  3231               	rrcf	??___fttol+3,f,c
  1112  000060  3230               	rrcf	??___fttol+2,f,c
  1113  000062  322F               	rrcf	??___fttol+1,f,c
  1114  000064                     u760:
  1115  000064  2E32               	decfsz	(??___fttol+4)& (0+255),f,c
  1116  000066  D7FA               	goto	u765
  1117  000068  502F               	movf	??___fttol+1,w,c
  1118  00006A  6E33               	movwf	___fttol@sign1,c
  1119  00006C  8E2B               	bsf	___fttol@f1+1,7,c
  1120  00006E  0EFF               	movlw	255
  1121  000070  162A               	andwf	___fttol@f1,f,c
  1122  000072  0EFF               	movlw	255
  1123  000074  162B               	andwf	___fttol@f1+1,f,c
  1124  000076  0E00               	movlw	0
  1125  000078  162C               	andwf	___fttol@f1+2,f,c
  1126  00007A  502A               	movf	___fttol@f1,w,c
  1127  00007C  6E34               	movwf	___fttol@lval,c
  1128  00007E  502B               	movf	___fttol@f1+1,w,c
  1129  000080  6E35               	movwf	___fttol@lval+1,c
  1130  000082  502C               	movf	___fttol@f1+2,w,c
  1131  000084  6E36               	movwf	___fttol@lval+2,c
  1132  000086  6A37               	clrf	___fttol@lval+3,c
  1133  000088  0E8E               	movlw	142
  1134  00008A  5E38               	subwf	___fttol@exp1,f,c
  1135  00008C  AE38               	btfss	___fttol@exp1,7,c
  1136  00008E  D016               	goto	l1397
  1137  000090  5038               	movf	___fttol@exp1,w,c
  1138  000092  0A80               	xorlw	128
  1139  000094  0F8F               	addlw	143
  1140  000096  B0D8               	btfsc	status,0,c
  1141  000098  D009               	goto	l1393
  1142  00009A  0E00               	movlw	0
  1143  00009C  6E2A               	movwf	?___fttol,c
  1144  00009E  0E00               	movlw	0
  1145  0000A0  6E2B               	movwf	?___fttol+1,c
  1146  0000A2  0E00               	movlw	0
  1147  0000A4  6E2C               	movwf	?___fttol+2,c
  1148  0000A6  0E00               	movlw	0
  1149  0000A8  6E2D               	movwf	?___fttol+3,c
  1150  0000AA  0012               	return	
  1151  0000AC                     l1393:
  1152  0000AC  90D8               	bcf	status,0,c
  1153  0000AE  3237               	rrcf	___fttol@lval+3,f,c
  1154  0000B0  3236               	rrcf	___fttol@lval+2,f,c
  1155  0000B2  3235               	rrcf	___fttol@lval+1,f,c
  1156  0000B4  3234               	rrcf	___fttol@lval,f,c
  1157  0000B6  3E38               	incfsz	___fttol@exp1,f,c
  1158  0000B8  D7F9               	goto	l1393
  1159  0000BA  D015               	goto	l1407
  1160  0000BC                     l1397:
  1161  0000BC  0E17               	movlw	23
  1162  0000BE  6438               	cpfsgt	___fttol@exp1,c
  1163  0000C0  D00F               	goto	l1405
  1164  0000C2  0E00               	movlw	0
  1165  0000C4  6E2A               	movwf	?___fttol,c
  1166  0000C6  0E00               	movlw	0
  1167  0000C8  6E2B               	movwf	?___fttol+1,c
  1168  0000CA  0E00               	movlw	0
  1169  0000CC  6E2C               	movwf	?___fttol+2,c
  1170  0000CE  0E00               	movlw	0
  1171  0000D0  6E2D               	movwf	?___fttol+3,c
  1172  0000D2  0012               	return	
  1173  0000D4                     l1403:
  1174  0000D4  90D8               	bcf	status,0,c
  1175  0000D6  3634               	rlcf	___fttol@lval,f,c
  1176  0000D8  3635               	rlcf	___fttol@lval+1,f,c
  1177  0000DA  3636               	rlcf	___fttol@lval+2,f,c
  1178  0000DC  3637               	rlcf	___fttol@lval+3,f,c
  1179  0000DE  0638               	decf	___fttol@exp1,f,c
  1180  0000E0                     l1405:
  1181  0000E0  5038               	movf	___fttol@exp1,w,c
  1182  0000E2  A4D8               	btfss	status,2,c
  1183  0000E4  D7F7               	goto	l1403
  1184  0000E6                     l1407:
  1185  0000E6  5033               	movf	___fttol@sign1,w,c
  1186  0000E8  B4D8               	btfsc	status,2,c
  1187  0000EA  D008               	goto	l1411
  1188  0000EC  1E37               	comf	___fttol@lval+3,f,c
  1189  0000EE  1E36               	comf	___fttol@lval+2,f,c
  1190  0000F0  1E35               	comf	___fttol@lval+1,f,c
  1191  0000F2  6C34               	negf	___fttol@lval,c
  1192  0000F4  0E00               	movlw	0
  1193  0000F6  2235               	addwfc	___fttol@lval+1,f,c
  1194  0000F8  2236               	addwfc	___fttol@lval+2,f,c
  1195  0000FA  2237               	addwfc	___fttol@lval+3,f,c
  1196  0000FC                     l1411:
  1197  0000FC  C034  F02A         	movff	___fttol@lval,?___fttol
  1198  000100  C035  F02B         	movff	___fttol@lval+1,?___fttol+1
  1199  000104  C036  F02C         	movff	___fttol@lval+2,?___fttol+2
  1200  000108  C037  F02D         	movff	___fttol@lval+3,?___fttol+3
  1201  00010C  0012               	return	
  1202  00010E                     __end_of___fttol:
  1203                           	opt stack 0
  1204                           tblptru	equ	0xFF8
  1205                           tblptrh	equ	0xFF7
  1206                           tblptrl	equ	0xFF6
  1207                           tablat	equ	0xFF5
  1208                           postinc0	equ	0xFEE
  1209                           wreg	equ	0xFE8
  1210                           postdec1	equ	0xFE5
  1211                           fsr1l	equ	0xFE1
  1212                           status	equ	0xFD8
  1213                           
  1214 ;; *************** function ___ftdiv *****************
  1215 ;; Defined at:
  1216 ;;		line 54 in file "C:\Program Files (x86)\Microchip\xc8\v1.35\sources\common\ftdiv.c"
  1217 ;; Parameters:    Size  Location     Type
  1218 ;;  f1              3   26[COMRAM] float 
  1219 ;;  f2              3   29[COMRAM] float 
  1220 ;; Auto vars:     Size  Location     Type
  1221 ;;  f3              3   36[COMRAM] float 
  1222 ;;  sign            1   40[COMRAM] unsigned char 
  1223 ;;  exp             1   39[COMRAM] unsigned char 
  1224 ;;  cntr            1   35[COMRAM] unsigned char 
  1225 ;; Return value:  Size  Location     Type
  1226 ;;                  3   26[COMRAM] float 
  1227 ;; Registers used:
  1228 ;;		wreg, status,2, status,0, cstack
  1229 ;; Tracked objects:
  1230 ;;		On entry : 0/0
  1231 ;;		On exit  : 0/0
  1232 ;;		Unchanged: 0/0
  1233 ;; Data sizes:     COMRAM   BANK0   BANK1   BANK2   BANK3   BANK4   BANK5   BANK6   BANK7
  1234 ;;      Params:         6       0       0       0       0       0       0       0       0
  1235 ;;      Locals:         6       0       0       0       0       0       0       0       0
  1236 ;;      Temps:          3       0       0       0       0       0       0       0       0
  1237 ;;      Totals:        15       0       0       0       0       0       0       0       0
  1238 ;;Total ram usage:       15 bytes
  1239 ;; Hardware stack levels used:    1
  1240 ;; Hardware stack levels required when called:    2
  1241 ;; This function calls:
  1242 ;;		___ftpack
  1243 ;; This function is called by:
  1244 ;;		_setMaxContCycle
  1245 ;; This function uses a non-reentrant model
  1246 ;;
  1247                           
  1248                           	psect	text9
  1249  00010E                     __ptext9:
  1250                           	opt stack 0
  1251  00010E                     ___ftdiv:
  1252                           	opt stack 27
  1253                           
  1254                           ;incstack = 0
  1255  00010E  C01D  F021         	movff	___ftdiv@f1+2,??___ftdiv
  1256  000112  6A22               	clrf	(??___ftdiv+1)& (0+255),c
  1257  000114  6A23               	clrf	(??___ftdiv+2)& (0+255),c
  1258  000116  341C               	rlcf	___ftdiv@f1+1,w,c
  1259  000118  3621               	rlcf	??___ftdiv& (0+255),f,c
  1260  00011A  E301               	bnc	u691
  1261  00011C  8022               	bsf	(??___ftdiv+1)& (0+255),0,c
  1262  00011E                     u691:
  1263  00011E  5021               	movf	??___ftdiv,w,c
  1264  000120  6E28               	movwf	___ftdiv@exp,c
  1265  000122  5028               	movf	___ftdiv@exp,w,c
  1266  000124  A4D8               	btfss	status,2,c
  1267  000126  D007               	goto	l1329
  1268  000128  0E00               	movlw	0
  1269  00012A  6E1B               	movwf	?___ftdiv,c
  1270  00012C  0E00               	movlw	0
  1271  00012E  6E1C               	movwf	?___ftdiv+1,c
  1272  000130  0E00               	movlw	0
  1273  000132  6E1D               	movwf	?___ftdiv+2,c
  1274  000134  0012               	return	
  1275  000136                     l1329:
  1276  000136  C020  F021         	movff	___ftdiv@f2+2,??___ftdiv
  1277  00013A  6A22               	clrf	(??___ftdiv+1)& (0+255),c
  1278  00013C  6A23               	clrf	(??___ftdiv+2)& (0+255),c
  1279  00013E  341F               	rlcf	___ftdiv@f2+1,w,c
  1280  000140  3621               	rlcf	??___ftdiv& (0+255),f,c
  1281  000142  E301               	bnc	u711
  1282  000144  8022               	bsf	(??___ftdiv+1)& (0+255),0,c
  1283  000146                     u711:
  1284  000146  5021               	movf	??___ftdiv,w,c
  1285  000148  6E29               	movwf	___ftdiv@sign,c
  1286  00014A  5029               	movf	___ftdiv@sign,w,c
  1287  00014C  A4D8               	btfss	status,2,c
  1288  00014E  D007               	goto	l1335
  1289  000150  0E00               	movlw	0
  1290  000152  6E1B               	movwf	?___ftdiv,c
  1291  000154  0E00               	movlw	0
  1292  000156  6E1C               	movwf	?___ftdiv+1,c
  1293  000158  0E00               	movlw	0
  1294  00015A  6E1D               	movwf	?___ftdiv+2,c
  1295  00015C  0012               	return	
  1296  00015E                     l1335:
  1297  00015E  0E00               	movlw	0
  1298  000160  6E25               	movwf	___ftdiv@f3,c
  1299  000162  0E00               	movlw	0
  1300  000164  6E26               	movwf	___ftdiv@f3+1,c
  1301  000166  0E00               	movlw	0
  1302  000168  6E27               	movwf	___ftdiv@f3+2,c
  1303  00016A  5029               	movf	___ftdiv@sign,w,c
  1304  00016C  0F89               	addlw	137
  1305  00016E  5E28               	subwf	___ftdiv@exp,f,c
  1306  000170  C01D  F029         	movff	___ftdiv@f1+2,___ftdiv@sign
  1307  000174  5020               	movf	___ftdiv@f2+2,w,c
  1308  000176  1A29               	xorwf	___ftdiv@sign,f,c
  1309  000178  0E80               	movlw	128
  1310  00017A  1629               	andwf	___ftdiv@sign,f,c
  1311  00017C  8E1C               	bsf	___ftdiv@f1+1,7,c
  1312  00017E  0EFF               	movlw	255
  1313  000180  161B               	andwf	___ftdiv@f1,f,c
  1314  000182  0EFF               	movlw	255
  1315  000184  161C               	andwf	___ftdiv@f1+1,f,c
  1316  000186  0E00               	movlw	0
  1317  000188  161D               	andwf	___ftdiv@f1+2,f,c
  1318  00018A  8E1F               	bsf	___ftdiv@f2+1,7,c
  1319  00018C  0EFF               	movlw	255
  1320  00018E  161E               	andwf	___ftdiv@f2,f,c
  1321  000190  0EFF               	movlw	255
  1322  000192  161F               	andwf	___ftdiv@f2+1,f,c
  1323  000194  0E00               	movlw	0
  1324  000196  1620               	andwf	___ftdiv@f2+2,f,c
  1325  000198  0E18               	movlw	24
  1326  00019A  6E24               	movwf	___ftdiv@cntr,c
  1327  00019C                     l1355:
  1328  00019C  90D8               	bcf	status,0,c
  1329  00019E  3625               	rlcf	___ftdiv@f3,f,c
  1330  0001A0  3626               	rlcf	___ftdiv@f3+1,f,c
  1331  0001A2  3627               	rlcf	___ftdiv@f3+2,f,c
  1332  0001A4  501E               	movf	___ftdiv@f2,w,c
  1333  0001A6  5C1B               	subwf	___ftdiv@f1,w,c
  1334  0001A8  501F               	movf	___ftdiv@f2+1,w,c
  1335  0001AA  581C               	subwfb	___ftdiv@f1+1,w,c
  1336  0001AC  5020               	movf	___ftdiv@f2+2,w,c
  1337  0001AE  581D               	subwfb	___ftdiv@f1+2,w,c
  1338  0001B0  A0D8               	btfss	status,0,c
  1339  0001B2  D007               	goto	l580
  1340  0001B4  501E               	movf	___ftdiv@f2,w,c
  1341  0001B6  5E1B               	subwf	___ftdiv@f1,f,c
  1342  0001B8  501F               	movf	___ftdiv@f2+1,w,c
  1343  0001BA  5A1C               	subwfb	___ftdiv@f1+1,f,c
  1344  0001BC  5020               	movf	___ftdiv@f2+2,w,c
  1345  0001BE  5A1D               	subwfb	___ftdiv@f1+2,f,c
  1346  0001C0  8025               	bsf	___ftdiv@f3,0,c
  1347  0001C2                     l580:
  1348  0001C2  90D8               	bcf	status,0,c
  1349  0001C4  361B               	rlcf	___ftdiv@f1,f,c
  1350  0001C6  361C               	rlcf	___ftdiv@f1+1,f,c
  1351  0001C8  361D               	rlcf	___ftdiv@f1+2,f,c
  1352  0001CA  2E24               	decfsz	___ftdiv@cntr,f,c
  1353  0001CC  D7E7               	goto	l1355
  1354  0001CE  C025  F010         	movff	___ftdiv@f3,___ftpack@arg
  1355  0001D2  C026  F011         	movff	___ftdiv@f3+1,___ftpack@arg+1
  1356  0001D6  C027  F012         	movff	___ftdiv@f3+2,___ftpack@arg+2
  1357  0001DA  C028  F013         	movff	___ftdiv@exp,___ftpack@exp
  1358  0001DE  C029  F014         	movff	___ftdiv@sign,___ftpack@sign
  1359  0001E2  EC64  F001         	call	___ftpack	;wreg free
  1360  0001E6  C010  F01B         	movff	?___ftpack,?___ftdiv
  1361  0001EA  C011  F01C         	movff	?___ftpack+1,?___ftdiv+1
  1362  0001EE  C012  F01D         	movff	?___ftpack+2,?___ftdiv+2
  1363  0001F2  0012               	return	
  1364  0001F4                     __end_of___ftdiv:
  1365                           	opt stack 0
  1366                           tblptru	equ	0xFF8
  1367                           tblptrh	equ	0xFF7
  1368                           tblptrl	equ	0xFF6
  1369                           tablat	equ	0xFF5
  1370                           postinc0	equ	0xFEE
  1371                           wreg	equ	0xFE8
  1372                           postdec1	equ	0xFE5
  1373                           fsr1l	equ	0xFE1
  1374                           status	equ	0xFD8
  1375                           
  1376 ;; *************** function ___ftpack *****************
  1377 ;; Defined at:
  1378 ;;		line 62 in file "C:\Program Files (x86)\Microchip\xc8\v1.35\sources\common\float.c"
  1379 ;; Parameters:    Size  Location     Type
  1380 ;;  arg             3   15[COMRAM] unsigned um
  1381 ;;  exp             1   18[COMRAM] unsigned char 
  1382 ;;  sign            1   19[COMRAM] unsigned char 
  1383 ;; Auto vars:     Size  Location     Type
  1384 ;;		None
  1385 ;; Return value:  Size  Location     Type
  1386 ;;                  3   15[COMRAM] float 
  1387 ;; Registers used:
  1388 ;;		wreg, status,2, status,0
  1389 ;; Tracked objects:
  1390 ;;		On entry : 0/0
  1391 ;;		On exit  : 0/0
  1392 ;;		Unchanged: 0/0
  1393 ;; Data sizes:     COMRAM   BANK0   BANK1   BANK2   BANK3   BANK4   BANK5   BANK6   BANK7
  1394 ;;      Params:         5       0       0       0       0       0       0       0       0
  1395 ;;      Locals:         0       0       0       0       0       0       0       0       0
  1396 ;;      Temps:          3       0       0       0       0       0       0       0       0
  1397 ;;      Totals:         8       0       0       0       0       0       0       0       0
  1398 ;;Total ram usage:        8 bytes
  1399 ;; Hardware stack levels used:    1
  1400 ;; Hardware stack levels required when called:    1
  1401 ;; This function calls:
  1402 ;;		Nothing
  1403 ;; This function is called by:
  1404 ;;		___ftdiv
  1405 ;;		___lwtoft
  1406 ;; This function uses a non-reentrant model
  1407 ;;
  1408                           
  1409                           	psect	text10
  1410  0002C8                     __ptext10:
  1411                           	opt stack 0
  1412  0002C8                     ___ftpack:
  1413                           	opt stack 27
  1414                           
  1415                           ;incstack = 0
  1416  0002C8  5013               	movf	___ftpack@exp,w,c
  1417  0002CA  B4D8               	btfsc	status,2,c
  1418  0002CC  D005               	goto	l1291
  1419  0002CE  5010               	movf	___ftpack@arg,w,c
  1420  0002D0  1011               	iorwf	___ftpack@arg+1,w,c
  1421  0002D2  1012               	iorwf	___ftpack@arg+2,w,c
  1422  0002D4  A4D8               	btfss	status,2,c
  1423  0002D6  D00C               	goto	l1297
  1424  0002D8                     l1291:
  1425  0002D8  0E00               	movlw	0
  1426  0002DA  6E10               	movwf	?___ftpack,c
  1427  0002DC  0E00               	movlw	0
  1428  0002DE  6E11               	movwf	?___ftpack+1,c
  1429  0002E0  0E00               	movlw	0
  1430  0002E2  6E12               	movwf	?___ftpack+2,c
  1431  0002E4  0012               	return	
  1432  0002E6                     l1295:
  1433  0002E6  2A13               	incf	___ftpack@exp,f,c
  1434  0002E8  90D8               	bcf	status,0,c
  1435  0002EA  3212               	rrcf	___ftpack@arg+2,f,c
  1436  0002EC  3211               	rrcf	___ftpack@arg+1,f,c
  1437  0002EE  3210               	rrcf	___ftpack@arg,f,c
  1438  0002F0                     l1297:
  1439  0002F0  0E00               	movlw	0
  1440  0002F2  1410               	andwf	___ftpack@arg,w,c
  1441  0002F4  6E15               	movwf	??___ftpack& (0+255),c
  1442  0002F6  0E00               	movlw	0
  1443  0002F8  1411               	andwf	___ftpack@arg+1,w,c
  1444  0002FA  6E16               	movwf	(??___ftpack+1)& (0+255),c
  1445  0002FC  0EFE               	movlw	254
  1446  0002FE  1412               	andwf	___ftpack@arg+2,w,c
  1447  000300  6E17               	movwf	(??___ftpack+2)& (0+255),c
  1448  000302  5015               	movf	??___ftpack,w,c
  1449  000304  1016               	iorwf	??___ftpack+1,w,c
  1450  000306  1017               	iorwf	??___ftpack+2,w,c
  1451  000308  B4D8               	btfsc	status,2,c
  1452  00030A  D00C               	goto	l1303
  1453  00030C  D7EC               	goto	l1295
  1454  00030E                     l1299:
  1455  00030E  2A13               	incf	___ftpack@exp,f,c
  1456  000310  0E01               	movlw	1
  1457  000312  2610               	addwf	___ftpack@arg,f,c
  1458  000314  0E00               	movlw	0
  1459  000316  2211               	addwfc	___ftpack@arg+1,f,c
  1460  000318  0E00               	movlw	0
  1461  00031A  2212               	addwfc	___ftpack@arg+2,f,c
  1462  00031C  90D8               	bcf	status,0,c
  1463  00031E  3212               	rrcf	___ftpack@arg+2,f,c
  1464  000320  3211               	rrcf	___ftpack@arg+1,f,c
  1465  000322  3210               	rrcf	___ftpack@arg,f,c
  1466  000324                     l1303:
  1467  000324  0E00               	movlw	0
  1468  000326  1410               	andwf	___ftpack@arg,w,c
  1469  000328  6E15               	movwf	??___ftpack& (0+255),c
  1470  00032A  0E00               	movlw	0
  1471  00032C  1411               	andwf	___ftpack@arg+1,w,c
  1472  00032E  6E16               	movwf	(??___ftpack+1)& (0+255),c
  1473  000330  0EFF               	movlw	255
  1474  000332  1412               	andwf	___ftpack@arg+2,w,c
  1475  000334  6E17               	movwf	(??___ftpack+2)& (0+255),c
  1476  000336  5015               	movf	??___ftpack,w,c
  1477  000338  1016               	iorwf	??___ftpack+1,w,c
  1478  00033A  1017               	iorwf	??___ftpack+2,w,c
  1479  00033C  B4D8               	btfsc	status,2,c
  1480  00033E  D006               	goto	l1307
  1481  000340  D7E6               	goto	l1299
  1482  000342                     l1305:
  1483  000342  0613               	decf	___ftpack@exp,f,c
  1484  000344  90D8               	bcf	status,0,c
  1485  000346  3610               	rlcf	___ftpack@arg,f,c
  1486  000348  3611               	rlcf	___ftpack@arg+1,f,c
  1487  00034A  3612               	rlcf	___ftpack@arg+2,f,c
  1488  00034C                     l1307:
  1489  00034C  BE11               	btfsc	___ftpack@arg+1,7,c
  1490  00034E  D003               	goto	l522
  1491  000350  0E02               	movlw	2
  1492  000352  6013               	cpfslt	___ftpack@exp,c
  1493  000354  D7F6               	goto	l1305
  1494  000356                     l522:
  1495  000356  A013               	btfss	___ftpack@exp,0,c
  1496  000358  9E11               	bcf	___ftpack@arg+1,7,c
  1497  00035A  90D8               	bcf	status,0,c
  1498  00035C  3213               	rrcf	___ftpack@exp,f,c
  1499  00035E  5013               	movf	___ftpack@exp,w,c
  1500  000360  1212               	iorwf	___ftpack@arg+2,f,c
  1501  000362  5014               	movf	___ftpack@sign,w,c
  1502  000364  A4D8               	btfss	status,2,c
  1503  000366  8E12               	bsf	___ftpack@arg+2,7,c
  1504  000368  C010  F010         	movff	___ftpack@arg,?___ftpack
  1505  00036C  C011  F011         	movff	___ftpack@arg+1,?___ftpack+1
  1506  000370  C012  F012         	movff	___ftpack@arg+2,?___ftpack+2
  1507  000374  0012               	return	
  1508  000376                     __end_of___ftpack:
  1509                           	opt stack 0
  1510                           tblptru	equ	0xFF8
  1511                           tblptrh	equ	0xFF7
  1512                           tblptrl	equ	0xFF6
  1513                           tablat	equ	0xFF5
  1514                           postinc0	equ	0xFEE
  1515                           wreg	equ	0xFE8
  1516                           postdec1	equ	0xFE5
  1517                           fsr1l	equ	0xFE1
  1518                           status	equ	0xFD8
  1519                           
  1520 ;; *************** function _putch *****************
  1521 ;; Defined at:
  1522 ;;		line 46 in file "usart.c"
  1523 ;; Parameters:    Size  Location     Type
  1524 ;;  byte            1    wreg     unsigned char 
  1525 ;; Auto vars:     Size  Location     Type
  1526 ;;  byte            1   15[COMRAM] unsigned char 
  1527 ;; Return value:  Size  Location     Type
  1528 ;;		None               void
  1529 ;; Registers used:
  1530 ;;		wreg
  1531 ;; Tracked objects:
  1532 ;;		On entry : 0/0
  1533 ;;		On exit  : 0/0
  1534 ;;		Unchanged: 0/0
  1535 ;; Data sizes:     COMRAM   BANK0   BANK1   BANK2   BANK3   BANK4   BANK5   BANK6   BANK7
  1536 ;;      Params:         0       0       0       0       0       0       0       0       0
  1537 ;;      Locals:         1       0       0       0       0       0       0       0       0
  1538 ;;      Temps:          0       0       0       0       0       0       0       0       0
  1539 ;;      Totals:         1       0       0       0       0       0       0       0       0
  1540 ;;Total ram usage:        1 bytes
  1541 ;; Hardware stack levels used:    1
  1542 ;; Hardware stack levels required when called:    1
  1543 ;; This function calls:
  1544 ;;		Nothing
  1545 ;; This function is called by:
  1546 ;;		_main
  1547 ;;		_getche
  1548 ;; This function uses a non-reentrant model
  1549 ;;
  1550                           
  1551                           	psect	text11
  1552  0005B4                     __ptext11:
  1553                           	opt stack 0
  1554  0005B4                     _putch:
  1555                           	opt stack 29
  1556                           
  1557                           ;incstack = 0
  1558                           ;putch@byte stored from wreg
  1559  0005B4  6E10               	movwf	putch@byte,c
  1560  0005B6                     l285:
  1561  0005B6  A89E               	btfss	3998,4,c	;volatile
  1562  0005B8  D7FE               	goto	l285
  1563                           
  1564                           ;usart.c: 50: TXREG = byte;
  1565  0005BA  C010  FFAD         	movff	putch@byte,4013	;volatile
  1566  0005BE  0012               	return		;funcret
  1567  0005C0                     __end_of_putch:
  1568                           	opt stack 0
  1569                           tblptru	equ	0xFF8
  1570                           tblptrh	equ	0xFF7
  1571                           tblptrl	equ	0xFF6
  1572                           tablat	equ	0xFF5
  1573                           postinc0	equ	0xFEE
  1574                           wreg	equ	0xFE8
  1575                           postdec1	equ	0xFE5
  1576                           fsr1l	equ	0xFE1
  1577                           status	equ	0xFD8
  1578                           
  1579 ;; *************** function _configUSARTInterrupts *****************
  1580 ;; Defined at:
  1581 ;;		line 32 in file "usart.c"
  1582 ;; Parameters:    Size  Location     Type
  1583 ;;		None
  1584 ;; Auto vars:     Size  Location     Type
  1585 ;;		None
  1586 ;; Return value:  Size  Location     Type
  1587 ;;		None               void
  1588 ;; Registers used:
  1589 ;;		None
  1590 ;; Tracked objects:
  1591 ;;		On entry : 0/0
  1592 ;;		On exit  : 0/0
  1593 ;;		Unchanged: 0/0
  1594 ;; Data sizes:     COMRAM   BANK0   BANK1   BANK2   BANK3   BANK4   BANK5   BANK6   BANK7
  1595 ;;      Params:         0       0       0       0       0       0       0       0       0
  1596 ;;      Locals:         0       0       0       0       0       0       0       0       0
  1597 ;;      Temps:          0       0       0       0       0       0       0       0       0
  1598 ;;      Totals:         0       0       0       0       0       0       0       0       0
  1599 ;;Total ram usage:        0 bytes
  1600 ;; Hardware stack levels used:    1
  1601 ;; Hardware stack levels required when called:    1
  1602 ;; This function calls:
  1603 ;;		Nothing
  1604 ;; This function is called by:
  1605 ;;		_main
  1606 ;; This function uses a non-reentrant model
  1607 ;;
  1608                           
  1609                           	psect	text12
  1610  0005A6                     __ptext12:
  1611                           	opt stack 0
  1612  0005A6                     _configUSARTInterrupts:
  1613                           	opt stack 29
  1614                           
  1615                           ;usart.c: 35: TXIE = 0;
  1616                           
  1617                           ;incstack = 0
  1618  0005A6  989D               	bcf	3997,4,c	;volatile
  1619                           
  1620                           ;usart.c: 36: TXIF = 0;
  1621  0005A8  989E               	bcf	3998,4,c	;volatile
  1622                           
  1623                           ;usart.c: 39: RCIE = 1;
  1624  0005AA  8A9D               	bsf	3997,5,c	;volatile
  1625                           
  1626                           ;usart.c: 40: RCIF = 0;
  1627  0005AC  9A9E               	bcf	3998,5,c	;volatile
  1628                           
  1629                           ;usart.c: 42: PEIE = 1;
  1630  0005AE  8CF2               	bsf	intcon,6,c	;volatile
  1631                           
  1632                           ;usart.c: 43: GIE = 1;
  1633  0005B0  8EF2               	bsf	intcon,7,c	;volatile
  1634  0005B2  0012               	return		;funcret
  1635  0005B4                     __end_of_configUSARTInterrupts:
  1636                           	opt stack 0
  1637                           tblptru	equ	0xFF8
  1638                           tblptrh	equ	0xFF7
  1639                           tblptrl	equ	0xFF6
  1640                           tablat	equ	0xFF5
  1641                           intcon	equ	0xFF2
  1642                           postinc0	equ	0xFEE
  1643                           wreg	equ	0xFE8
  1644                           postdec1	equ	0xFE5
  1645                           fsr1l	equ	0xFE1
  1646                           status	equ	0xFD8
  1647                           
  1648 ;; *************** function _configTimer *****************
  1649 ;; Defined at:
  1650 ;;		line 19 in file "timer0.c"
  1651 ;; Parameters:    Size  Location     Type
  1652 ;;		None
  1653 ;; Auto vars:     Size  Location     Type
  1654 ;;		None
  1655 ;; Return value:  Size  Location     Type
  1656 ;;		None               void
  1657 ;; Registers used:
  1658 ;;		None
  1659 ;; Tracked objects:
  1660 ;;		On entry : 0/0
  1661 ;;		On exit  : 0/0
  1662 ;;		Unchanged: 0/0
  1663 ;; Data sizes:     COMRAM   BANK0   BANK1   BANK2   BANK3   BANK4   BANK5   BANK6   BANK7
  1664 ;;      Params:         0       0       0       0       0       0       0       0       0
  1665 ;;      Locals:         0       0       0       0       0       0       0       0       0
  1666 ;;      Temps:          0       0       0       0       0       0       0       0       0
  1667 ;;      Totals:         0       0       0       0       0       0       0       0       0
  1668 ;;Total ram usage:        0 bytes
  1669 ;; Hardware stack levels used:    1
  1670 ;; Hardware stack levels required when called:    1
  1671 ;; This function calls:
  1672 ;;		Nothing
  1673 ;; This function is called by:
  1674 ;;		_main
  1675 ;; This function uses a non-reentrant model
  1676 ;;
  1677                           
  1678                           	psect	text13
  1679  000552                     __ptext13:
  1680                           	opt stack 0
  1681  000552                     _configTimer:
  1682                           	opt stack 29
  1683                           
  1684                           ;timer0.c: 20: T0CONbits.T0CS = 0;
  1685                           
  1686                           ;incstack = 0
  1687  000552  9AD5               	bcf	4053,5,c	;volatile
  1688                           
  1689                           ;timer0.c: 21: T0CONbits.T0SE = 0;
  1690  000554  98D5               	bcf	4053,4,c	;volatile
  1691                           
  1692                           ;timer0.c: 22: T0CONbits.PSA = 0;
  1693  000556  96D5               	bcf	4053,3,c	;volatile
  1694                           
  1695                           ;timer0.c: 23: T0CONbits.T08BIT = 0;
  1696  000558  9CD5               	bcf	4053,6,c	;volatile
  1697                           
  1698                           ;timer0.c: 26: T0CONbits.T0PS2 = 1;
  1699  00055A  84D5               	bsf	4053,2,c	;volatile
  1700                           
  1701                           ;timer0.c: 27: T0CONbits.T0PS1 = 0;
  1702  00055C  92D5               	bcf	4053,1,c	;volatile
  1703                           
  1704                           ;timer0.c: 28: T0CONbits.T0PS0 = 1;
  1705  00055E  80D5               	bsf	4053,0,c	;volatile
  1706                           
  1707                           ;timer0.c: 30: TMR0IP = 1;
  1708  000560  84F1               	bsf	intcon2,2,c	;volatile
  1709                           
  1710                           ;timer0.c: 32: INTCONbits.TMR0IF = 0;
  1711  000562  94F2               	bcf	intcon,2,c	;volatile
  1712                           
  1713                           ;timer0.c: 33: INTCONbits.TMR0IE = 1;
  1714  000564  8AF2               	bsf	intcon,5,c	;volatile
  1715                           
  1716                           ;timer0.c: 34: INTCONbits.GIE = 1;
  1717  000566  8EF2               	bsf	intcon,7,c	;volatile
  1718                           
  1719                           ;timer0.c: 35: INTCONbits.PEIE = 1;
  1720  000568  8CF2               	bsf	intcon,6,c	;volatile
  1721  00056A  0012               	return		;funcret
  1722  00056C                     __end_of_configTimer:
  1723                           	opt stack 0
  1724                           tblptru	equ	0xFF8
  1725                           tblptrh	equ	0xFF7
  1726                           tblptrl	equ	0xFF6
  1727                           tablat	equ	0xFF5
  1728                           intcon	equ	0xFF2
  1729                           intcon2	equ	0xFF1
  1730                           postinc0	equ	0xFEE
  1731                           wreg	equ	0xFE8
  1732                           postdec1	equ	0xFE5
  1733                           fsr1l	equ	0xFE1
  1734                           status	equ	0xFD8
  1735                           
  1736 ;; *************** function _configRS232 *****************
  1737 ;; Defined at:
  1738 ;;		line 9 in file "usart.c"
  1739 ;; Parameters:    Size  Location     Type
  1740 ;;		None
  1741 ;; Auto vars:     Size  Location     Type
  1742 ;;		None
  1743 ;; Return value:  Size  Location     Type
  1744 ;;		None               void
  1745 ;; Registers used:
  1746 ;;		wreg, status,2
  1747 ;; Tracked objects:
  1748 ;;		On entry : 0/0
  1749 ;;		On exit  : 0/0
  1750 ;;		Unchanged: 0/0
  1751 ;; Data sizes:     COMRAM   BANK0   BANK1   BANK2   BANK3   BANK4   BANK5   BANK6   BANK7
  1752 ;;      Params:         0       0       0       0       0       0       0       0       0
  1753 ;;      Locals:         0       0       0       0       0       0       0       0       0
  1754 ;;      Temps:          0       0       0       0       0       0       0       0       0
  1755 ;;      Totals:         0       0       0       0       0       0       0       0       0
  1756 ;;Total ram usage:        0 bytes
  1757 ;; Hardware stack levels used:    1
  1758 ;; Hardware stack levels required when called:    1
  1759 ;; This function calls:
  1760 ;;		Nothing
  1761 ;; This function is called by:
  1762 ;;		_main
  1763 ;; This function uses a non-reentrant model
  1764 ;;
  1765                           
  1766                           	psect	text14
  1767  00056C                     __ptext14:
  1768                           	opt stack 0
  1769  00056C                     _configRS232:
  1770                           	opt stack 29
  1771                           
  1772                           ;usart.c: 13: TX9 = 0;
  1773                           
  1774                           ;incstack = 0
  1775  00056C  9CAC               	bcf	4012,6,c	;volatile
  1776                           
  1777                           ;usart.c: 14: TXEN = 1;
  1778  00056E  8AAC               	bsf	4012,5,c	;volatile
  1779                           
  1780                           ;usart.c: 15: SYNC = 0;
  1781  000570  98AC               	bcf	4012,4,c	;volatile
  1782                           
  1783                           ;usart.c: 16: BRGH = 1;
  1784  000572  84AC               	bsf	4012,2,c	;volatile
  1785                           
  1786                           ;usart.c: 19: SPEN = 1;
  1787  000574  8EAB               	bsf	4011,7,c	;volatile
  1788                           
  1789                           ;usart.c: 20: RX9 = 0;
  1790  000576  9CAB               	bcf	4011,6,c	;volatile
  1791                           
  1792                           ;usart.c: 21: CREN = 1;
  1793  000578  88AB               	bsf	4011,4,c	;volatile
  1794                           
  1795                           ;usart.c: 26: BRG16 = 0;
  1796  00057A  96B8               	bcf	4024,3,c	;volatile
  1797                           
  1798                           ;usart.c: 27: SPBRG = 129;
  1799  00057C  0E81               	movlw	129
  1800  00057E  6EAF               	movwf	4015,c	;volatile
  1801                           
  1802                           ;usart.c: 29: RXDTP = 0;
  1803  000580  9AB8               	bcf	4024,5,c	;volatile
  1804  000582  0012               	return		;funcret
  1805  000584                     __end_of_configRS232:
  1806                           	opt stack 0
  1807                           tblptru	equ	0xFF8
  1808                           tblptrh	equ	0xFF7
  1809                           tblptrl	equ	0xFF6
  1810                           tablat	equ	0xFF5
  1811                           intcon	equ	0xFF2
  1812                           intcon2	equ	0xFF1
  1813                           postinc0	equ	0xFEE
  1814                           wreg	equ	0xFE8
  1815                           postdec1	equ	0xFE5
  1816                           fsr1l	equ	0xFE1
  1817                           status	equ	0xFD8
  1818                           
  1819 ;; *************** function _configPortBInterrupt *****************
  1820 ;; Defined at:
  1821 ;;		line 116 in file "main.c"
  1822 ;; Parameters:    Size  Location     Type
  1823 ;;		None
  1824 ;; Auto vars:     Size  Location     Type
  1825 ;;		None
  1826 ;; Return value:  Size  Location     Type
  1827 ;;		None               void
  1828 ;; Registers used:
  1829 ;;		None
  1830 ;; Tracked objects:
  1831 ;;		On entry : 0/0
  1832 ;;		On exit  : 0/0
  1833 ;;		Unchanged: 0/0
  1834 ;; Data sizes:     COMRAM   BANK0   BANK1   BANK2   BANK3   BANK4   BANK5   BANK6   BANK7
  1835 ;;      Params:         0       0       0       0       0       0       0       0       0
  1836 ;;      Locals:         0       0       0       0       0       0       0       0       0
  1837 ;;      Temps:          0       0       0       0       0       0       0       0       0
  1838 ;;      Totals:         0       0       0       0       0       0       0       0       0
  1839 ;;Total ram usage:        0 bytes
  1840 ;; Hardware stack levels used:    1
  1841 ;; Hardware stack levels required when called:    1
  1842 ;; This function calls:
  1843 ;;		Nothing
  1844 ;; This function is called by:
  1845 ;;		_main
  1846 ;; This function uses a non-reentrant model
  1847 ;;
  1848                           
  1849                           	psect	text15
  1850  0005D4                     __ptext15:
  1851                           	opt stack 0
  1852  0005D4                     _configPortBInterrupt:
  1853                           	opt stack 29
  1854                           
  1855                           ;main.c: 117: INTCONbits.RBIE = 1;
  1856                           
  1857                           ;incstack = 0
  1858  0005D4  86F2               	bsf	intcon,3,c	;volatile
  1859                           
  1860                           ;main.c: 118: INTCONbits.RBIF = 0;
  1861  0005D6  90F2               	bcf	intcon,0,c	;volatile
  1862                           
  1863                           ;main.c: 119: INTCONbits.GIE = 1;
  1864  0005D8  8EF2               	bsf	intcon,7,c	;volatile
  1865                           
  1866                           ;main.c: 120: INTCONbits.PEIE = 1;
  1867  0005DA  8CF2               	bsf	intcon,6,c	;volatile
  1868  0005DC  0012               	return		;funcret
  1869  0005DE                     __end_of_configPortBInterrupt:
  1870                           	opt stack 0
  1871                           tblptru	equ	0xFF8
  1872                           tblptrh	equ	0xFF7
  1873                           tblptrl	equ	0xFF6
  1874                           tablat	equ	0xFF5
  1875                           intcon	equ	0xFF2
  1876                           intcon2	equ	0xFF1
  1877                           postinc0	equ	0xFEE
  1878                           wreg	equ	0xFE8
  1879                           postdec1	equ	0xFE5
  1880                           fsr1l	equ	0xFE1
  1881                           status	equ	0xFD8
  1882                           
  1883 ;; *************** function _configPinsOV7670 *****************
  1884 ;; Defined at:
  1885 ;;		line 123 in file "main.c"
  1886 ;; Parameters:    Size  Location     Type
  1887 ;;		None
  1888 ;; Auto vars:     Size  Location     Type
  1889 ;;		None
  1890 ;; Return value:  Size  Location     Type
  1891 ;;		None               void
  1892 ;; Registers used:
  1893 ;;		wreg
  1894 ;; Tracked objects:
  1895 ;;		On entry : 0/0
  1896 ;;		On exit  : 0/0
  1897 ;;		Unchanged: 0/0
  1898 ;; Data sizes:     COMRAM   BANK0   BANK1   BANK2   BANK3   BANK4   BANK5   BANK6   BANK7
  1899 ;;      Params:         0       0       0       0       0       0       0       0       0
  1900 ;;      Locals:         0       0       0       0       0       0       0       0       0
  1901 ;;      Temps:          0       0       0       0       0       0       0       0       0
  1902 ;;      Totals:         0       0       0       0       0       0       0       0       0
  1903 ;;Total ram usage:        0 bytes
  1904 ;; Hardware stack levels used:    1
  1905 ;; Hardware stack levels required when called:    1
  1906 ;; This function calls:
  1907 ;;		Nothing
  1908 ;; This function is called by:
  1909 ;;		_main
  1910 ;; This function uses a non-reentrant model
  1911 ;;
  1912                           
  1913                           	psect	text16
  1914  000534                     __ptext16:
  1915                           	opt stack 0
  1916  000534                     _configPinsOV7670:
  1917                           	opt stack 29
  1918                           
  1919                           ;main.c: 124: PORTEbits.RE2 = 0;
  1920                           
  1921                           ;incstack = 0
  1922  000534  9484               	bcf	3972,2,c	;volatile
  1923                           
  1924                           ;main.c: 125: PORTEbits.RE0 = 1;
  1925  000536  8084               	bsf	3972,0,c	;volatile
  1926                           
  1927                           ;main.c: 126: PORTCbits.RC0 = 1;
  1928  000538  8082               	bsf	3970,0,c	;volatile
  1929                           
  1930                           ;main.c: 127: PORTBbits.RB4 = 0;
  1931  00053A  9881               	bcf	3969,4,c	;volatile
  1932                           
  1933                           ;main.c: 128: PORTCbits.RC2 = 1;
  1934  00053C  8482               	bsf	3970,2,c	;volatile
  1935                           
  1936                           ;main.c: 129: PORTCbits.RC1 = 0;
  1937  00053E  9282               	bcf	3970,1,c	;volatile
  1938                           
  1939                           ;main.c: 130: PORTBbits.RB2 = 0;
  1940  000540  9481               	bcf	3969,2,c	;volatile
  1941                           
  1942                           ;main.c: 131: PORTBbits.RB6 = 0;
  1943  000542  9C81               	bcf	3969,6,c	;volatile
  1944                           
  1945                           ;main.c: 132: _delay((unsigned long)((10)*(20000000/4000000.0)));
  1946  000544  0E10               	movlw	16
  1947  000546                     u877:
  1948  000546  2EE8               	decfsz	wreg,f,c
  1949  000548  D7FE               	goto	u877
  1950  00054A  D000               	nop2		;nop
  1951                           
  1952                           ;main.c: 133: PORTEbits.RE0 = 0;
  1953  00054C  9084               	bcf	3972,0,c	;volatile
  1954                           
  1955                           ;main.c: 134: PORTCbits.RC0 = 0;
  1956  00054E  9082               	bcf	3970,0,c	;volatile
  1957  000550  0012               	return		;funcret
  1958  000552                     __end_of_configPinsOV7670:
  1959                           	opt stack 0
  1960                           tblptru	equ	0xFF8
  1961                           tblptrh	equ	0xFF7
  1962                           tblptrl	equ	0xFF6
  1963                           tablat	equ	0xFF5
  1964                           intcon	equ	0xFF2
  1965                           intcon2	equ	0xFF1
  1966                           postinc0	equ	0xFEE
  1967                           wreg	equ	0xFE8
  1968                           postdec1	equ	0xFE5
  1969                           fsr1l	equ	0xFE1
  1970                           status	equ	0xFD8
  1971                           
  1972 ;; *************** function _InitI2C_Master *****************
  1973 ;; Defined at:
  1974 ;;		line 4 in file "i2c.c"
  1975 ;; Parameters:    Size  Location     Type
  1976 ;;		None
  1977 ;; Auto vars:     Size  Location     Type
  1978 ;;		None
  1979 ;; Return value:  Size  Location     Type
  1980 ;;		None               void
  1981 ;; Registers used:
  1982 ;;		wreg, status,2
  1983 ;; Tracked objects:
  1984 ;;		On entry : 0/0
  1985 ;;		On exit  : 0/0
  1986 ;;		Unchanged: 0/0
  1987 ;; Data sizes:     COMRAM   BANK0   BANK1   BANK2   BANK3   BANK4   BANK5   BANK6   BANK7
  1988 ;;      Params:         0       0       0       0       0       0       0       0       0
  1989 ;;      Locals:         0       0       0       0       0       0       0       0       0
  1990 ;;      Temps:          0       0       0       0       0       0       0       0       0
  1991 ;;      Totals:         0       0       0       0       0       0       0       0       0
  1992 ;;Total ram usage:        0 bytes
  1993 ;; Hardware stack levels used:    1
  1994 ;; Hardware stack levels required when called:    1
  1995 ;; This function calls:
  1996 ;;		Nothing
  1997 ;; This function is called by:
  1998 ;;		_main
  1999 ;; This function uses a non-reentrant model
  2000 ;;
  2001                           
  2002                           	psect	text17
  2003  000512                     __ptext17:
  2004                           	opt stack 0
  2005  000512                     _InitI2C_Master:
  2006                           	opt stack 29
  2007                           
  2008                           ;i2c.c: 6: TRISBbits.RB0 = 1;
  2009                           
  2010                           ;incstack = 0
  2011  000512  8093               	bsf	3987,0,c	;volatile
  2012                           
  2013                           ;i2c.c: 7: TRISBbits.RB1 = 1;
  2014  000514  8293               	bsf	3987,1,c	;volatile
  2015                           
  2016                           ;i2c.c: 9: SSPADD = ( 20000000 / (4*100000) ) - 1;
  2017  000516  0E31               	movlw	49
  2018  000518  6EC8               	movwf	4040,c	;volatile
  2019                           
  2020                           ;i2c.c: 12: SSPIF = 0;
  2021  00051A  969E               	bcf	3998,3,c	;volatile
  2022                           
  2023                           ;i2c.c: 15: SSPSTAT = 0;
  2024  00051C  0E00               	movlw	0
  2025  00051E  6EC7               	movwf	4039,c	;volatile
  2026                           
  2027                           ;i2c.c: 16: SSPSTATbits.SMP = 1;
  2028  000520  8EC7               	bsf	4039,7,c	;volatile
  2029                           
  2030                           ;i2c.c: 17: SSPSTATbits.CKE = 0;
  2031  000522  9CC7               	bcf	4039,6,c	;volatile
  2032                           
  2033                           ;i2c.c: 20: SSPCON1 = 0;
  2034  000524  0E00               	movlw	0
  2035  000526  6EC6               	movwf	4038,c	;volatile
  2036                           
  2037                           ;i2c.c: 21: SSPCON1bits.SSPM = 0b1000;
  2038  000528  50C6               	movf	4038,w,c	;volatile
  2039  00052A  0BF0               	andlw	-16
  2040  00052C  0908               	iorlw	8
  2041  00052E  6EC6               	movwf	4038,c	;volatile
  2042                           
  2043                           ;i2c.c: 22: SSPCON1bits.SSPEN = 1;
  2044  000530  8AC6               	bsf	4038,5,c	;volatile
  2045  000532  0012               	return		;funcret
  2046  000534                     __end_of_InitI2C_Master:
  2047                           	opt stack 0
  2048                           tblptru	equ	0xFF8
  2049                           tblptrh	equ	0xFF7
  2050                           tblptrl	equ	0xFF6
  2051                           tablat	equ	0xFF5
  2052                           intcon	equ	0xFF2
  2053                           intcon2	equ	0xFF1
  2054                           postinc0	equ	0xFEE
  2055                           wreg	equ	0xFE8
  2056                           postdec1	equ	0xFE5
  2057                           fsr1l	equ	0xFE1
  2058                           status	equ	0xFD8
  2059                           
  2060 ;; *************** function _interruptions *****************
  2061 ;; Defined at:
  2062 ;;		line 39 in file "main.c"
  2063 ;; Parameters:    Size  Location     Type
  2064 ;;		None
  2065 ;; Auto vars:     Size  Location     Type
  2066 ;;		None
  2067 ;; Return value:  Size  Location     Type
  2068 ;;		None               void
  2069 ;; Registers used:
  2070 ;;		wreg, status,2, status,0
  2071 ;; Tracked objects:
  2072 ;;		On entry : 0/0
  2073 ;;		On exit  : 0/0
  2074 ;;		Unchanged: 0/0
  2075 ;; Data sizes:     COMRAM   BANK0   BANK1   BANK2   BANK3   BANK4   BANK5   BANK6   BANK7
  2076 ;;      Params:         0       0       0       0       0       0       0       0       0
  2077 ;;      Locals:         0       0       0       0       0       0       0       0       0
  2078 ;;      Temps:         15       0       0       0       0       0       0       0       0
  2079 ;;      Totals:        15       0       0       0       0       0       0       0       0
  2080 ;;Total ram usage:       15 bytes
  2081 ;; Hardware stack levels used:    1
  2082 ;; This function calls:
  2083 ;;		Nothing
  2084 ;; This function is called by:
  2085 ;;		Interrupt level 2
  2086 ;; This function uses a non-reentrant model
  2087 ;;
  2088                           
  2089                           	psect	intcode
  2090  000008                     __pintcode:
  2091                           	opt stack 0
  2092  000008                     _interruptions:
  2093                           	opt stack 27
  2094                           
  2095                           ;incstack = 0
  2096  000008  8249               	bsf	btemp,1,c	;set compiler interrupt flag (level 2)
  2097  00000A  CFFA F002          	movff	pclath,??_interruptions+1
  2098  00000E  CFFB F003          	movff	pclatu,??_interruptions+2
  2099  000012  EDFA  F000         	call	int_func,f	;refresh shadow registers
  2100                           pclatu	equ	0xFFB
  2101                           pclath	equ	0xFFA
  2102                           tblptru	equ	0xFF8
  2103                           tblptrh	equ	0xFF7
  2104                           tblptrl	equ	0xFF6
  2105                           tablat	equ	0xFF5
  2106                           intcon	equ	0xFF2
  2107                           intcon2	equ	0xFF1
  2108                           postinc0	equ	0xFEE
  2109                           wreg	equ	0xFE8
  2110                           postdec1	equ	0xFE5
  2111                           fsr1l	equ	0xFE1
  2112                           status	equ	0xFD8
  2113                           
  2114                           	psect	intcode_body
  2115  0001F4                     __pintcode_body:
  2116                           	opt stack 27
  2117  0001F4                     int_func:
  2118                           	opt stack 27
  2119  0001F4  0006               	pop		; remove dummy address from shadow register refresh
  2120  0001F6  CFE9 F004          	movff	fsr0l,??_interruptions+3
  2121  0001FA  CFEA F005          	movff	fsr0h,??_interruptions+4
  2122  0001FE  CFE1 F006          	movff	fsr1l,??_interruptions+5
  2123  000202  CFE2 F007          	movff	fsr1h,??_interruptions+6
  2124  000206  CFD9 F008          	movff	fsr2l,??_interruptions+7
  2125  00020A  CFDA F009          	movff	fsr2h,??_interruptions+8
  2126  00020E  CFF3 F00A          	movff	prodl,??_interruptions+9
  2127  000212  CFF4 F00B          	movff	prodh,??_interruptions+10
  2128  000216  CFF6 F00C          	movff	tblptrl,??_interruptions+11
  2129  00021A  CFF7 F00D          	movff	tblptrh,??_interruptions+12
  2130  00021E  CFF8 F00E          	movff	tblptru,??_interruptions+13
  2131  000222  CFF5 F00F          	movff	tablat,??_interruptions+14
  2132                           
  2133                           ;main.c: 41: if (RCIF){
  2134  000226  AA9E               	btfss	3998,5,c	;volatile
  2135  000228  D009               	goto	i2l199
  2136                           
  2137                           ;main.c: 43: if (FERR || OERR){
  2138  00022A  B4AB               	btfsc	4011,2,c	;volatile
  2139  00022C  D002               	goto	i2l202
  2140  00022E  A2AB               	btfss	4011,1,c	;volatile
  2141  000230  D003               	goto	i2l200
  2142  000232                     i2l202:
  2143                           
  2144                           ;main.c: 44: CREN = 0;
  2145  000232  98AB               	bcf	4011,4,c	;volatile
  2146                           
  2147                           ;main.c: 45: hasAnError = 1;
  2148  000234  8642               	bsf	_hasAnError/(0+8),_hasAnError& (0+7),c
  2149                           
  2150                           ;main.c: 46: CREN = 1;
  2151  000236  88AB               	bsf	4011,4,c	;volatile
  2152  000238                     i2l200:
  2153                           
  2154                           ;main.c: 47: }
  2155                           ;main.c: 48: receivedData = RCREG;
  2156  000238  CFAE F046          	movff	4014,_receivedData	;volatile
  2157  00023C                     i2l199:
  2158                           
  2159                           ;main.c: 49: }
  2160                           ;main.c: 51: if(INTCONbits.TMR0IF){
  2161  00023C  A4F2               	btfss	intcon,2,c	;volatile
  2162  00023E  D003               	goto	i2l1225
  2163                           
  2164                           ;main.c: 52: val++;
  2165  000240  4A3C               	infsnz	_val,f,c
  2166  000242  2A3D               	incf	_val+1,f,c
  2167                           
  2168                           ;main.c: 53: INTCONbits.TMR0IF = 0;
  2169  000244  94F2               	bcf	intcon,2,c	;volatile
  2170  000246                     i2l1225:
  2171                           
  2172                           ;main.c: 54: }
  2173                           ;main.c: 56: if(INTCONbits.RBIF){
  2174  000246  A0F2               	btfss	intcon,0,c	;volatile
  2175  000248  D021               	goto	i2l208
  2176                           
  2177                           ;main.c: 58: if(PORTBbits.RB7){
  2178  00024A  AE81               	btfss	3969,7,c	;volatile
  2179  00024C  D00F               	goto	i2l205
  2180                           
  2181                           ;main.c: 60: if(requisitar_foto){
  2182  00024E  A842               	btfss	_requisitar_foto/(0+8),_requisitar_foto& (0+7),c
  2183  000250  D003               	goto	i2l206
  2184                           
  2185                           ;main.c: 61: PORTBbits.RB4 = 1;
  2186  000252  8881               	bsf	3969,4,c	;volatile
  2187                           
  2188                           ;main.c: 62: requisitar_foto = 0;
  2189  000254  9842               	bcf	_requisitar_foto/(0+8),_requisitar_foto& (0+7),c
  2190                           
  2191                           ;main.c: 63: finish = 1;
  2192  000256  8442               	bsf	_finish/(0+8),_finish& (0+7),c
  2193  000258                     i2l206:
  2194                           
  2195                           ;main.c: 64: }
  2196                           ;main.c: 65: changingLed_VSYNC = ~changingLed_VSYNC;
  2197  000258  B242               	btfsc	_changingLed_VSYNC/(0+8),_changingLed_VSYNC& (0+7),c
  2198  00025A  D002               	goto	i2u53_40
  2199  00025C  8242               	bsf	_changingLed_VSYNC/(0+8),_changingLed_VSYNC& (0+7),c
  2200  00025E  D001               	goto	i2u54_45
  2201  000260                     i2u53_40:
  2202  000260  9242               	bcf	_changingLed_VSYNC/(0+8),_changingLed_VSYNC& (0+7),c
  2203  000262                     i2u54_45:
  2204                           
  2205                           ;main.c: 66: PORTBbits.RB6 = changingLed_VSYNC;
  2206  000262  A242               	btfss	_changingLed_VSYNC/(0+8),_changingLed_VSYNC& (0+7),c
  2207  000264  D002               	bra	i2u55_45
  2208  000266  8C81               	bsf	3969,6,c	;volatile
  2209  000268  D001               	bra	i2u55_47
  2210  00026A                     i2u55_45:
  2211  00026A  9C81               	bcf	3969,6,c	;volatile
  2212  00026C                     i2u55_47:
  2213  00026C                     i2l205:
  2214                           
  2215                           ;main.c: 67: }
  2216                           ;main.c: 69: if(PORTBbits.RB5){
  2217  00026C  AA81               	btfss	3969,5,c	;volatile
  2218  00026E  D00D               	goto	i2l1243
  2219                           
  2220                           ;main.c: 72: PORTEbits.RE1 = 1;
  2221  000270  8284               	bsf	3972,1,c	;volatile
  2222                           
  2223                           ;main.c: 73: PORTCbits.RC0 = 1;
  2224  000272  8082               	bsf	3970,0,c	;volatile
  2225                           
  2226                           ;main.c: 74: PORTEbits.RE0 = 1;
  2227  000274  8084               	bsf	3972,0,c	;volatile
  2228                           
  2229                           ;main.c: 75: _delay((unsigned long)((20)*(20000000/4000.0)));
  2230  000276  0E82               	movlw	130
  2231  000278  6E01               	movwf	??_interruptions& (0+255),c
  2232  00027A  0EDE               	movlw	222
  2233  00027C                     i2u88_47:
  2234  00027C  2EE8               	decfsz	wreg,f,c
  2235  00027E  D7FE               	goto	i2u88_47
  2236  000280  2E01               	decfsz	??_interruptions& (0+255),f,c
  2237  000282  D7FC               	goto	i2u88_47
  2238                           
  2239                           ;main.c: 76: PORTCbits.RC0 = 0;
  2240  000284  9082               	bcf	3970,0,c	;volatile
  2241                           
  2242                           ;main.c: 77: PORTEbits.RE0 = 0;
  2243  000286  9084               	bcf	3972,0,c	;volatile
  2244                           
  2245                           ;main.c: 78: PORTEbits.RE1 = 0;
  2246  000288  9284               	bcf	3972,1,c	;volatile
  2247  00028A                     i2l1243:
  2248                           
  2249                           ;main.c: 79: }
  2250                           ;main.c: 80: INTCONbits.RBIF = 0;
  2251  00028A  90F2               	bcf	intcon,0,c	;volatile
  2252  00028C                     i2l208:
  2253  00028C  C00F  FFF5         	movff	??_interruptions+14,tablat
  2254  000290  C00E  FFF8         	movff	??_interruptions+13,tblptru
  2255  000294  C00D  FFF7         	movff	??_interruptions+12,tblptrh
  2256  000298  C00C  FFF6         	movff	??_interruptions+11,tblptrl
  2257  00029C  C00B  FFF4         	movff	??_interruptions+10,prodh
  2258  0002A0  C00A  FFF3         	movff	??_interruptions+9,prodl
  2259  0002A4  C009  FFDA         	movff	??_interruptions+8,fsr2h
  2260  0002A8  C008  FFD9         	movff	??_interruptions+7,fsr2l
  2261  0002AC  C007  FFE2         	movff	??_interruptions+6,fsr1h
  2262  0002B0  C006  FFE1         	movff	??_interruptions+5,fsr1l
  2263  0002B4  C005  FFEA         	movff	??_interruptions+4,fsr0h
  2264  0002B8  C004  FFE9         	movff	??_interruptions+3,fsr0l
  2265  0002BC  C003  FFFB         	movff	??_interruptions+2,pclatu
  2266  0002C0  C002  FFFA         	movff	??_interruptions+1,pclath
  2267  0002C4  9249               	bcf	btemp,1,c	;clear compiler interrupt flag (level 2)
  2268  0002C6  0011               	retfie		f
  2269  0002C8                     __end_of_interruptions:
  2270                           	opt stack 0
  2271  0000                     pclatu	equ	0xFFB
  2272                           pclath	equ	0xFFA
  2273                           tblptru	equ	0xFF8
  2274                           tblptrh	equ	0xFF7
  2275                           tblptrl	equ	0xFF6
  2276                           tablat	equ	0xFF5
  2277                           prodh	equ	0xFF4
  2278                           prodl	equ	0xFF3
  2279                           intcon	equ	0xFF2
  2280                           intcon2	equ	0xFF1
  2281                           postinc0	equ	0xFEE
  2282                           fsr0h	equ	0xFEA
  2283                           fsr0l	equ	0xFE9
  2284                           wreg	equ	0xFE8
  2285                           postdec1	equ	0xFE5
  2286                           fsr1h	equ	0xFE2
  2287                           fsr1l	equ	0xFE1
  2288                           fsr2h	equ	0xFDA
  2289                           fsr2l	equ	0xFD9
  2290                           status	equ	0xFD8
  2291                           pclatu	equ	0xFFB
  2292                           pclath	equ	0xFFA
  2293                           tblptru	equ	0xFF8
  2294                           tblptrh	equ	0xFF7
  2295                           tblptrl	equ	0xFF6
  2296                           tablat	equ	0xFF5
  2297                           prodh	equ	0xFF4
  2298                           prodl	equ	0xFF3
  2299                           intcon	equ	0xFF2
  2300                           intcon2	equ	0xFF1
  2301                           postinc0	equ	0xFEE
  2302                           fsr0h	equ	0xFEA
  2303                           fsr0l	equ	0xFE9
  2304                           wreg	equ	0xFE8
  2305                           postdec1	equ	0xFE5
  2306                           fsr1h	equ	0xFE2
  2307                           fsr1l	equ	0xFE1
  2308                           fsr2h	equ	0xFDA
  2309                           fsr2l	equ	0xFD9
  2310                           status	equ	0xFD8
  2311                           
  2312                           	psect	rparam
  2313  0000                     pclatu	equ	0xFFB
  2314                           pclath	equ	0xFFA
  2315                           tblptru	equ	0xFF8
  2316                           tblptrh	equ	0xFF7
  2317                           tblptrl	equ	0xFF6
  2318                           tablat	equ	0xFF5
  2319                           prodh	equ	0xFF4
  2320                           prodl	equ	0xFF3
  2321                           intcon	equ	0xFF2
  2322                           intcon2	equ	0xFF1
  2323                           postinc0	equ	0xFEE
  2324                           fsr0h	equ	0xFEA
  2325                           fsr0l	equ	0xFE9
  2326                           wreg	equ	0xFE8
  2327                           postdec1	equ	0xFE5
  2328                           fsr1h	equ	0xFE2
  2329                           fsr1l	equ	0xFE1
  2330                           fsr2h	equ	0xFDA
  2331                           fsr2l	equ	0xFD9
  2332                           status	equ	0xFD8
  2333                           
  2334                           	psect	temp
  2335  000049                     btemp:
  2336                           	opt stack 0
  2337  000049                     	ds	1
  2338  0000                     int$flags	set	btemp
  2339                           pclatu	equ	0xFFB
  2340                           pclath	equ	0xFFA
  2341                           tblptru	equ	0xFF8
  2342                           tblptrh	equ	0xFF7
  2343                           tblptrl	equ	0xFF6
  2344                           tablat	equ	0xFF5
  2345                           prodh	equ	0xFF4
  2346                           prodl	equ	0xFF3
  2347                           intcon	equ	0xFF2
  2348                           intcon2	equ	0xFF1
  2349                           postinc0	equ	0xFEE
  2350                           fsr0h	equ	0xFEA
  2351                           fsr0l	equ	0xFE9
  2352                           wreg	equ	0xFE8
  2353                           postdec1	equ	0xFE5
  2354                           fsr1h	equ	0xFE2
  2355                           fsr1l	equ	0xFE1
  2356                           fsr2h	equ	0xFDA
  2357                           fsr2l	equ	0xFD9
  2358                           status	equ	0xFD8


Data Sizes:
    Strings     0
    Constant    0
    Data        4
    BSS         6
    Persistent  2
    Stack       0

Auto Spaces:
    Space          Size  Autos    Used
    COMRAM           94     59      72
    BANK0           160      0       0
    BANK1           256      0       0
    BANK2           256      0       0
    BANK3           256      0       0
    BANK4           256      0       0
    BANK5           256      0       0
    BANK6           256      0       0
    BANK7           256      0       0

Pointer List with Targets:

    None.

Critical Paths under _main in COMRAM

    _main->_setMaxContCycle
    _writeOV7670_I2c->_I2C_Idle
    _writeOV7670_I2c->_I2C_Write_Byte
    _setMaxContCycle->___fttol
    ___lwtoft->___ftpack
    ___fttol->___ftdiv
    ___ftdiv->___lwtoft

Critical Paths under _interruptions in COMRAM

    None.

Critical Paths under _main in BANK0

    None.

Critical Paths under _interruptions in BANK0

    None.

Critical Paths under _main in BANK1

    None.

Critical Paths under _interruptions in BANK1

    None.

Critical Paths under _main in BANK2

    None.

Critical Paths under _interruptions in BANK2

    None.

Critical Paths under _main in BANK3

    None.

Critical Paths under _interruptions in BANK3

    None.

Critical Paths under _main in BANK4

    None.

Critical Paths under _interruptions in BANK4

    None.

Critical Paths under _main in BANK5

    None.

Critical Paths under _interruptions in BANK5

    None.

Critical Paths under _main in BANK6

    None.

Critical Paths under _interruptions in BANK6

    None.

Critical Paths under _main in BANK7

    None.

Critical Paths under _interruptions in BANK7

    None.

Call Graph Tables:

 ---------------------------------------------------------------------------------
 (Depth) Function   	        Calls       Base Space   Used Autos Params    Refs
 ---------------------------------------------------------------------------------
 (0) _main                                                 1     1      0    3479
                                             58 COMRAM     1     1      0
                     _InitI2C_Master
                   _configPinsOV7670
               _configPortBInterrupt
                        _configRS232
                        _configTimer
              _configUSARTInterrupts
                              _putch
                    _setMaxContCycle
                    _writeOV7670_I2c
 ---------------------------------------------------------------------------------
 (1) _writeOV7670_I2c                                      0     0      0      15
                           _I2C_Idle
                          _I2C_Start
                           _I2C_Stop
                     _I2C_Write_Byte
 ---------------------------------------------------------------------------------
 (2) _I2C_Write_Byte                                       1     1      0      15
                                             15 COMRAM     1     1      0
 ---------------------------------------------------------------------------------
 (2) _I2C_Stop                                             0     0      0       0
 ---------------------------------------------------------------------------------
 (2) _I2C_Start                                            0     0      0       0
 ---------------------------------------------------------------------------------
 (2) _I2C_Idle                                             1     1      0       0
                                             15 COMRAM     1     1      0
 ---------------------------------------------------------------------------------
 (1) _setMaxContCycle                                      2     0      2    3449
                                             56 COMRAM     2     0      2
                            ___ftdiv
                            ___fttol
                           ___lwtoft
 ---------------------------------------------------------------------------------
 (2) ___lwtoft                                             3     0      3    1364
                                             23 COMRAM     3     0      3
                           ___ftpack
 ---------------------------------------------------------------------------------
 (2) ___fttol                                             15    11      4     295
                                             41 COMRAM    15    11      4
                            ___ftdiv (ARG)
                           ___lwtoft (ARG)
 ---------------------------------------------------------------------------------
 (2) ___ftdiv                                             15     9      6    1725
                                             26 COMRAM    15     9      6
                           ___ftpack
                           ___lwtoft (ARG)
 ---------------------------------------------------------------------------------
 (3) ___ftpack                                             8     3      5    1299
                                             15 COMRAM     8     3      5
 ---------------------------------------------------------------------------------
 (1) _putch                                                1     1      0      15
                                             15 COMRAM     1     1      0
 ---------------------------------------------------------------------------------
 (1) _configUSARTInterrupts                                0     0      0       0
 ---------------------------------------------------------------------------------
 (1) _configTimer                                          0     0      0       0
 ---------------------------------------------------------------------------------
 (1) _configRS232                                          0     0      0       0
 ---------------------------------------------------------------------------------
 (1) _configPortBInterrupt                                 0     0      0       0
 ---------------------------------------------------------------------------------
 (1) _configPinsOV7670                                     0     0      0       0
 ---------------------------------------------------------------------------------
 (1) _InitI2C_Master                                       0     0      0       0
 ---------------------------------------------------------------------------------
 Estimated maximum stack depth 3
 ---------------------------------------------------------------------------------
 (Depth) Function   	        Calls       Base Space   Used Autos Params    Refs
 ---------------------------------------------------------------------------------
 (4) _interruptions                                       15    15      0       0
                                              0 COMRAM    15    15      0
 ---------------------------------------------------------------------------------
 Estimated maximum stack depth 4
 ---------------------------------------------------------------------------------

 Call Graph Graphs:

 _main (ROOT)
   _InitI2C_Master
   _configPinsOV7670
   _configPortBInterrupt
   _configRS232
   _configTimer
   _configUSARTInterrupts
   _putch
   _setMaxContCycle
     ___ftdiv
       ___ftpack
       ___lwtoft (ARG)
         ___ftpack
     ___fttol
       ___ftdiv (ARG)
         ___ftpack
         ___lwtoft (ARG)
           ___ftpack
       ___lwtoft (ARG)
         ___ftpack
     ___lwtoft
       ___ftpack
   _writeOV7670_I2c
     _I2C_Idle
     _I2C_Start
     _I2C_Stop
     _I2C_Write_Byte

 _interruptions (ROOT)

 Address spaces:
Name               Size   Autos  Total    Cost      Usage
BIGRAM             7FF      0       0      21        0.0%
EEDATA             100      0       0       0        0.0%
BITBANK7           100      0       0      18        0.0%
BANK7              100      0       0      19        0.0%
BITBANK6           100      0       0      16        0.0%
BANK6              100      0       0      17        0.0%
BITBANK5           100      0       0      14        0.0%
BANK5              100      0       0      15        0.0%
BITBANK4           100      0       0      12        0.0%
BANK4              100      0       0      13        0.0%
BITBANK3           100      0       0      10        0.0%
BANK3              100      0       0      11        0.0%
BITBANK2           100      0       0       8        0.0%
BANK2              100      0       0       9        0.0%
BITBANK1           100      0       0       6        0.0%
BANK1              100      0       0       7        0.0%
BITBANK0            A0      0       0       4        0.0%
BANK0               A0      0       0       5        0.0%
BITCOMRAM           5E      0       1       0        1.1%
COMRAM              5E     3B      48       1       76.6%
BITSFR               0      0       0      40        0.0%
SFR                  0      0       0      40        0.0%
STACK                0      0       0       2        0.0%
NULL                 0      0       0       0        0.0%
ABS                  0      0      48      20        0.0%
DATA                 0      0      48       3        0.0%
CODE                 0      0       0       0        0.0%


Microchip Technology PIC18 Macro Assembler V1.35 build -356382666 
Symbol Table                                                                                   Wed Mar 29 14:53:29 2017

        _Timer0_SecondsInACycle 0043              __size_of_I2C_Start 000A                     _SSPSTATbits 000FC7  
                            l77 05CC                              l89 05C2           __end_of_interruptions 02C8  
                   __CFG_BORV$3 000000                    __CFG_CP0$OFF 000000                    __CFG_CP1$OFF 000000  
                  __CFG_CP2$OFF 000000                    __CFG_CP3$OFF 000000                             l107 059C  
                           l522 0356                             l285 05B6                             l580 01C2  
                           l939 0584                             _GIE 007F97                    __CFG_CPB$OFF 000000  
                  __CFG_CPD$OFF 000000                             u711 0146                             u741 002A  
                           u760 0064                             u691 011E                             u765 005C  
                           _RX9 007D5E                             u867 03E4                             u877 0546  
                           _TX9 007D66                    __CFG_BOR$OFF 000000                             _val 003C  
            I2C_Write_Byte@Byte 0010                             wreg 000FE8                    __CFG_FOSC$HS 000000  
                  __CFG_LVP$OFF 000000                    ___ftdiv@cntr 0024                    ___ftdiv@sign 0029  
                  __CFG_WDT$OFF 000000                            l1303 0324                            l1305 0342  
                          l1307 034C                            l1411 00FC                            l1403 00D4  
                          l1405 00E0                            l1335 015E                            l1407 00E6  
                          l1329 0136                            l1291 02D8                            l1355 019C  
                          l1453 03EE                            l1445 03D6                            l1295 02E6  
                          l1375 0046                            l1439 03B8                            l1297 02F0  
                          l1393 00AC                            l1299 030E                            l1397 00BC  
                          _ADFM 007E07                            _BRGH 007D62                            _CREN 007D5C  
                          _FERR 007D5A                            _PEIE 007F96                            _RCIE 007CED  
                          _RCIF 007CF5                            _OERR 007D59                            _SPEN 007D5F  
                          _TXIE 007CEC                            _TXIF 007CF4                            _TXEN 007D65  
                          _SYNC 007D64                            _data 003F                            _main 0376  
                  ___ftpack@arg 0010                __end_of_I2C_Idle 0596                    ___ftpack@exp 0013  
                          fsr0h 000FEA                            fsr1h 000FE2                            fsr0l 000FE9  
                          fsr2h 000FDA                            fsr1l 000FE1                            fsr2l 000FD9  
                          btemp 0049                __end_of_I2C_Stop 05CA                            pclat 000FFA  
                          prodh 000FF4                            prodl 000FF3                            start 0016  
                 __CFG_IESO$OFF 000000                   __CFG_MCLRE$ON 000000       __size_of_configPinsOV7670 001E  
                  ___param_bank 000010          ??_configPortBInterrupt 0010                    ___fttol@exp1 0038  
                  ___fttol@lval 0034                   __CFG_PLLDIV$1 000000                           ?_main 0001  
                         _BRG16 007DC3                 __end_of___ftdiv 01F4                 __end_of___fttol 010E  
                         i2l200 0238                           i2l202 0232                           i2l205 026C  
                         i2l206 0258                           i2l208 028C                           i2l199 023C  
                         _RCREG 000FAE                           _SPBRG 000FAF                           _PORTD 000F83  
                 __CFG_USBDIV$1 000000                           _TRISD 000F95                           _SSPIF 007CF3  
                         _RXDTP 007DC5                           _TXREG 000FAD                   __CFG_PWRT$OFF 000000  
                 __CFG_WRT0$OFF 000000                   __CFG_WRT1$OFF 000000                   __CFG_WRT2$OFF 000000  
                 __CFG_WRT3$OFF 000000                  __CFG_EBTR0$OFF 000000                  __CFG_FCMEN$OFF 000000  
                __CFG_EBTR1$OFF 000000                  __CFG_EBTR2$OFF 000000                  __CFG_EBTR3$OFF 000000  
                 __CFG_WRTB$OFF 000000                   __CFG_WRTC$OFF 000000                   __CFG_WRTD$OFF 000000  
                __CFG_EBTRB$OFF 000000                   ___ftpack@sign 0014                           _putch 05B4  
             __end_of_I2C_Start 05D4                  __pbitbssCOMRAM 0210                           tablat 000FF5  
                         status 000FD8                  __CFG_ICPRT$OFF 000000                ??_InitI2C_Master 0010  
               __initialization 04B6                    __end_of_main 0408                 _writeOV7670_I2c 0408  
               _setMaxContCycle 0474                          ??_main 003B                   ___fttol@sign1 0033  
                 __activetblptr 000000           _configUSARTInterrupts 05A6                 __CFG_CCP2MX$OFF 000000  
                        ?_putch 0001                __end_of___ftpack 0376                          i2l1225 0246  
                        i2l1243 028A                __end_of___lwtoft 0512                          _TMR0IP 007F8A  
                        _SSPADD 000FC8                          _SSPBUF 000FC9            __size_of_configRS232 0018  
                __CFG_XINST$OFF 000000            __size_of_configTimer 001A                       ??___ftdiv 0021  
                     ??___fttol 002E                          _finish 0212                       ?_I2C_Idle 0001  
                  __pdataCOMRAM 0043                       ?_I2C_Stop 0001                          tblptrh 000FF7  
                        tblptrl 000FF6                          tblptru 000FF8                      __accesstop 0060  
       __end_of__initialization 04E4                 __CFG_PBADEN$OFF 000000                   ___rparam_used 000001  
                    ___ftdiv@f1 001B                      ___ftdiv@f2 001E                      ___ftdiv@f3 0025  
       __end_of_writeOV7670_I2c 0474         __end_of_setMaxContCycle 04B6                _configPinsOV7670 0534  
                    ___fttol@f1 002A                    _changingLed1 0210                  __pcstackCOMRAM 0001  
                 __end_of_putch 05C0                 _requisitar_foto 0214                      ___lwtoft@c 0018  
        ?_configUSARTInterrupts 0001                      ??_I2C_Idle 0010                      ??_I2C_Stop 0010  
                       ??_putch 0010                      _hasAnError 0213                      __pnvCOMRAM 0047  
       __size_of_I2C_Write_Byte 0010                       ?___ftpack 0010                       ?___lwtoft 0018  
                       i2u53_40 0260                         i2u54_45 0262                         i2u55_45 026A  
                       i2u55_47 026C                         i2u88_47 027C                         _SSPCON1 000FC6  
                       _SSPCON2 000FC5                         _SSPSTAT 000FC7                 __CFG_VREGEN$OFF 000000  
        __size_of_interruptions 02C0                       _I2C_Start 05CA                         __Hparam 0000  
              ?_writeOV7670_I2c 0001                ?_setMaxContCycle 0039                         __Lparam 0000  
                       ___ftdiv 010E                         ___fttol 001A   __size_of_configPortBInterrupt 000A  
               __CFG_STVREN$OFF 000000                         __pcinit 04B6                      ??___ftpack 0015  
                       __ramtop 0800                         __ptext0 0376                         __ptext1 0408  
                       __ptext2 0596                         __ptext3 05C0                         __ptext4 05CA  
                       __ptext5 0584                         __ptext6 0474                         __ptext7 04EE  
                       __ptext8 001A                         __ptext9 010E                      ??___lwtoft 001B  
                     _T0CONbits 000FD5                         _largura 0040                         _leitura 0041  
                __pintcode_body 01F4            end_of_initialization 04E4                         int_func 01F4  
                    ?_I2C_Start 0001                         postdec1 000FE5                         postinc0 000FEE  
                 _interruptions 0008                       _PORTBbits 000F81                       _PORTCbits 000F82  
                     _PORTEbits 000F84                       _TRISBbits 000F93                       _TRISCbits 000F94  
                     _TRISEbits 000F96        __end_of_configPinsOV7670 0552               __size_of_I2C_Idle 0012  
             __size_of_I2C_Stop 000A                   ??_configRS232 0010                     ___ftdiv@exp 0028  
                  _maxContCycle 0047                   ??_configTimer 0010         ??_configUSARTInterrupts 0010  
                _I2C_Write_Byte 0596                  ?_interruptions 0001                   __pidataCOMRAM 05DE  
       __size_of_InitI2C_Master 0022             start_initialization 04B6                     ??_I2C_Start 0010  
             _changingLed_VSYNC 0211             __end_of_configRS232 0584  setMaxContCycle@secondsInACycle 0039  
        __end_of_I2C_Write_Byte 05A6             __end_of_configTimer 056C                __CFG_LPT1OSC$OFF 000000  
             __size_of___ftpack 00AE                     __pbssCOMRAM 003C               __size_of___lwtoft 0024  
               ?_I2C_Write_Byte 0001                       __pintcode 0008                 ??_interruptions 0001  
                      ?___ftdiv 001B                        ?___fttol 002A                        _I2C_Idle 0584  
                      _I2C_Stop 05C0    __end_of_configPortBInterrupt 05DE                  __size_of_putch 000C  
                  _receivedData 0046                     _configRS232 056C                        _PIE1bits 000F9D  
                   _configTimer 0552                        _PIR1bits 000F9E                __CFG_WDTPS$32768 000000  
      __size_of_writeOV7670_I2c 006C                  _InitI2C_Master 0512        __size_of_setMaxContCycle 0042  
                    _ADCON0bits 000FC2                      _ADCON1bits 000FC1                      _ADCON2bits 000FC0  
                   _comprimento 003E               ?_configPinsOV7670 0001                       copy_data0 04D8  
            ??_configPinsOV7670 0010                        __Hrparam 0000                        __Lrparam 0000  
        __end_of_InitI2C_Master 0534                __size_of___ftdiv 00E6                __size_of___fttol 00F4  
__size_of_configUSARTInterrupts 000E                        ___ftpack 02C8   __end_of_configUSARTInterrupts 05B4  
                      ___lwtoft 04EE                        __ptext10 02C8                        __ptext11 05B4  
                      __ptext12 05A6                        __ptext13 0552                        __ptext14 056C  
                      __ptext15 05D4                        __ptext16 0534                        __ptext17 0512  
                 __size_of_main 0092                        int$flags 0049                 ?_InitI2C_Master 0001  
          _configPortBInterrupt 05D4           __CFG_CPUDIV$OSC1_PLL2 000000                       putch@byte 0010  
                    _INTCONbits 000FF2               ??_writeOV7670_I2c 0011               ??_setMaxContCycle 003B  
                      intlevel2 0000                ??_I2C_Write_Byte 0010           ?_configPortBInterrupt 0001  
                   _SSPCON1bits 000FC6                     _SSPCON2bits 000FC5                    ?_configRS232 0001  
                  ?_configTimer 0001  
